(dp1
S'output'
p2
S"<type 'exceptions.ValueError'> invalid literal for int() with base 10: '17 11:00:30'"
p3
sS'layer'
p4
S'e:\\documents\\nwoi\\web2py\\applications\\nwoi\\controllers/default.py'
p5
sS'code'
p6
S'# -*- coding: utf-8 -*-\n# this file is released under public domain and you can use without limitations\n\n# ########################################################################\n# # This is a sample controller\n# # - index is the default action of any application\n# # - user is required for authentication and authorization\n# # - download is for downloading files uploaded in the db (does streaming)\n# # - api is an example of Hypermedia API support and access control\n#########################################################################\nfrom gluon.tools import Crud\n\ncrud = Crud(db)\ncrud.settings.download_url = URL(\'download\')\ncrud.settings.update_deletable = True\ncrud.settings.keepvalues = True\n\n\ndef congfutimu(form):\n    if db.timu((db.timu.oj == form.vars.oj) & (db.timu.bianhao == form.vars.bianhao)):\n        form.errors = True\n        response.flash = \'\xe9\xa2\x98\xe7\x9b\xae\xe5\xb7\xb2\xe5\xad\x98\xe5\x9c\xa8\'\n\n\ncrud.settings.create_onvalidation.timu.append(congfutimu)\n\n\ndef index():\n    """\n    example action using the internationalization operator T and flash\n    rendered by views/default/index.html or views/generic.html\n\n    if you need a simple wiki simply replace the two lines below with:\n    return auth.wiki()\n    """\n    if auth.user:\n        jisuanjifen()\n        print auth.user\n    rows = db(db.auth_user.yingcang==False).select(db.auth_user.first_name, db.auth_user.jifen, orderby=~db.auth_user.jifen)\n    left = SQLTABLE(rows, headers={\'auth_user.first_name\': \'\xe5\xa7\x93\xe5\x90\x8d\', \'auth_user.jifen\': \'\xe7\xa7\xaf\xe5\x88\x86\'})\n    firstzuoye = db().select(db.zuoye.id).first().id\n    title=db.zuoye[firstzuoye].title\n    qtid = db.zuoye[firstzuoye].qingtong\n    byid = db.zuoye[firstzuoye].baiying\n    hjid = db.zuoye[firstzuoye].huangjing\n    qttm = db.timu[qtid]\n    bytm = db.timu[byid]\n    hjtm = db.timu[hjid]\n    a1 = A(\'\xe9\x9d\x92\xe9\x93\x9c\xef\xbc\x9a\' + qttm.biaoti + \'\xe9\x80\x9a\xe8\xbf\x87\xe6\x95\xb0:\' + str(qttm.tongguo), _href=URL(\'viewtimu\', args=[qtid]))\n    a2 = A(\'\xe7\x99\xbd\xe9\x93\xb6\xef\xbc\x9a\' + bytm.biaoti + \'\xe9\x80\x9a\xe8\xbf\x87\xe6\x95\xb0:\' + str(qttm.tongguo), _href=URL(\'viewtimu\', args=[byid]))\n    a3 = A(\'\xe9\xbb\x84\xe9\x87\x91\xef\xbc\x9a\' + hjtm.biaoti + \'\xe9\x80\x9a\xe8\xbf\x87\xe6\x95\xb0:\' + str(qttm.tongguo), _href=URL(\'viewtimu\', args=[hjid]))\n\n    return dict(left=left, title=title,a1=a1, a2=a2, a3=a3)\n\n\n@auth.requires_login()\ndef createtimu():\n    db.timu.zuozhe.default = auth.user.id\n    return dict(form=crud.create(db.timu, next=URL(\'timus\'), message=\'add sucessed\'))\n\n\n@auth.requires_login()\ndef edittimu():\n    return dict(form=crud.update(db.timu, request.args[0]))\n\n\n@auth.requires_login()\ndef tijiao():\n    timu = request.args[0]\n    if db.tijiao((db.tijiao.timu == timu) & (db.tijiao.zuozhe == auth.user.id)):\n        return dict(form=\'\xe5\xb7\xb2\xe7\xbb\x8f\xe6\x8f\x90\xe4\xba\xa4\xe8\xaf\xa5\xe9\xa2\x98\')\n    db.tijiao.timu.default = timu\n    db.tijiao.zuozhe.default = auth.user.id\n    form = crud.create(db.tijiao, next=URL(\'timus\'), message=\'\xe5\xb7\xb2\xe6\x8f\x90\xe4\xba\xa4\')\n    return dict(form=form)\n\n\n@auth.requires_login()\ndef createjietibaogao():\n    timu = request.args[0]\n    if db.jietibaogao((db.jietibaogao.timu == timu) & (db.jietibaogao.zuozhe == auth.user.id)):\n        return dict(form=\'\xe5\xb7\xb2\xe7\xbb\x8f\xe6\x8f\x90\xe4\xba\xa4\xe8\xaf\xa5\xe9\xa2\x98\xe8\xa7\xa3\xe9\xa2\x98\xe6\x8a\xa5\xe5\x91\x8a\')\n    db.jietibaogao.timu.default = timu\n    db.jietibaogao.zuozhe.default = auth.user.id\n    form = crud.create(db.jietibaogao, next=URL(\'jietibaogaos\', args=[timu]), message=\'\xe5\xb7\xb2\xe6\x8f\x90\xe4\xba\xa4\')\n    return dict(form=form)\n\n\n@auth.requires_login()\ndef tijiaos():\n    grid = SQLFORM.grid(\n        db.tijiao,\n        fields=[db.tijiao.timu, db.tijiao.zuozhe, db.tijiao.shijian, db.tijiao.yuyan, db.tijiao.tongguo],\n        orderby=~db.tijiao.id,\n        create=False,\n        deletable=False,\n        details=False,\n        editable=False,\n        csv=False,\n        links=[dict(header=\'\xe6\x9f\xa5\xe7\x9c\x8b\', body=lambda row: A(\'\xe6\x9f\xa5\xe7\x9c\x8b\', _href=URL(\'viewtijiao\', args=[row.id])))])\n    return locals()\n\n\n@auth.requires_login()\ndef zuoyes():\n    grid = SQLFORM.grid(\n        db.zuoye,\n        orderby=~db.zuoye.id,\n        create=False,\n        deletable=False,\n        editable=False,\n        details=False,\n        csv=False,\n        links_in_grid=True,\n        links=[dict(header=\'\xe6\x9f\xa5\xe7\x9c\x8b\', body=lambda row: A(\'\xe6\x9f\xa5\xe7\x9c\x8b\', _href=URL(\'viewzuoye\', args=[row.id])))]\n    )\n    return locals()\n\n\n@auth.requires_login()\ndef viewtimu():\n    timuid = request.args[0]\n    if db.tijiao((db.tijiao.timu == timuid) & (auth.user.id == db.tijiao.zuozhe)):\n        tjid = db.tijiao(db.tijiao.timu == timuid).id\n        tijiaourl = A(\'\xe5\xb7\xb2\xe6\x8f\x90\xe4\xba\xa4\', _href=URL(\'viewtijiao\', args=[tjid]))\n    else:\n        tijiaourl = A(\'\xe6\x8f\x90\xe4\xba\xa4\', _href=URL(\'tijiao\', args=[timuid]))\n    jietibaogaourl=A(\'\xe8\xa7\xa3\xe9\xa2\x98\xe6\x8a\xa5\xe5\x91\x8a\',_href=URL(\'jietibaogaos\',args=[timuid]))\n    pingluns=db(db.pinglun.timu==timuid).select()\n    formpl=[]\n    for pl in pingluns:\n        if \'teacher\' in auth.user_group(auth.user.id):\n            pass\n        else:\n            formpl.append(crud.read(db.pinglun,pl.id))\n    db.pinglun.timu.default=timuid\n    db.pinglun.zuozhe.default=auth.user.id\n    addpinglun=crud.create(db.pinglun)\n    return dict(form=crud.read(db.timu, timuid),\n                tijiaourl=tijiaourl,jietibaogaourl=jietibaogaourl,\n                pingluns=formpl,addpinglun=addpinglun)\n\n\n@auth.requires_login()\ndef viewtijiao():\n    tjid = request.args[0]\n    if db.tijiao[tjid].zuozhe == auth.user.id:\n        return dict(form=crud.read(db.tijiao, tjid))\n    return \'\xe5\x8f\xaa\xe8\x83\xbd\xe6\x9f\xa5\xe7\x9c\x8b\xe6\x9c\xac\xe4\xba\xba\xe6\x8f\x90\xe4\xba\xa4\'\n\n\n@auth.requires_login()\ndef viewjietibaogao():\n    jtbgid = request.args[0]\n    return dict(form=crud.read(db.jietibaogao, jtbgid))\n\n\n@auth.requires_login()\ndef viewzuoye():\n    zuoyeid = request.args[0]\n    title=db.zuoye[zuoyeid].title\n    qtid = db.zuoye[zuoyeid].qingtong\n    byid = db.zuoye[zuoyeid].baiying\n    hjid = db.zuoye[zuoyeid].huangjing\n    qttm = db.timu[qtid]\n    bytm = db.timu[byid]\n    hjtm = db.timu[hjid]\n    a1 = A(\'\xe9\x9d\x92\xe9\x93\x9c\xef\xbc\x9a\' + qttm.biaoti + \'------\xe9\x80\x9a\xe8\xbf\x87\xe6\x95\xb0:\' + str(qttm.tongguo), _href=URL(\'viewtimu\', args=[qtid]))\n    a2 = A(\'\xe7\x99\xbd\xe9\x93\xb6\xef\xbc\x9a\' + bytm.biaoti + \'------\xe9\x80\x9a\xe8\xbf\x87\xe6\x95\xb0:\' + str(qttm.tongguo), _href=URL(\'viewtimu\', args=[byid]))\n    a3 = A(\'\xe9\xbb\x84\xe9\x87\x91\xef\xbc\x9a\' + hjtm.biaoti + \'------\xe9\x80\x9a\xe8\xbf\x87\xe6\x95\xb0:\' + str(qttm.tongguo), _href=URL(\'viewtimu\', args=[hjid]))\n\n    return dict(title=title,a1=a1, a2=a2, a3=a3)\n\n\n@auth.requires(auth.has_membership(role=\'teacher\'), requires_login=True)\ndef managetijiaos():\n    db.tijiao.tongguo.writable = True\n    grid = SQLFORM.grid(\n        db.tijiao,\n        editable=True,\n        details=True,\n        selectable=None,\n        create=True\n    )\n    return dict(form=grid)\n\n\n@auth.requires(auth.has_membership(role=\'teacher\'), requires_login=True)\ndef managezuoyes():\n    grid = SQLFORM.grid(db.zuoye, orderby=~db.zuoye.id)\n    return dict(form=grid)\n\n\n@auth.requires_login()\ndef timus():\n    add = A(\'\xe6\x96\xb0\xe5\xbb\xba\', _href=URL(\'createtimu\'))\n    grid = SQLFORM.grid(\n        db.timu,\n        fields=[db.timu.biaoti, db.timu.zuozhe, db.timu.shijian, db.timu.oj, db.timu.bianhao, db.timu.jifen,\n                db.timu.tongguo],\n        orderby=~db.timu.id,\n        create=False,\n        deletable=False,\n        editable=False,\n        csv=False,\n        links_in_grid=True,\n        details=False,\n        links=[dict(header=\'\xe6\x8f\x90\xe4\xba\xa4\', body=lambda row: A(\'\xe6\x8f\x90\xe4\xba\xa4\', _href=URL(\'tijiao\', args=[row.id]))),\n               dict(header=\'\xe6\x9f\xa5\xe7\x9c\x8b\', body=lambda row: A(\'\xe6\x9f\xa5\xe7\x9c\x8b\', _href=URL(\'viewtimu\', args=[row.id]))),\n               dict(header=\'\xe8\xa7\xa3\xe9\xa2\x98\xe6\x8a\xa5\xe5\x91\x8a\', body=lambda row: A(\'\xe6\x8a\xa5\xe5\x91\x8a\', _href=URL(\'jietibaogaos\', args=[row.id])))])\n    return locals()\n\n\n@auth.requires_login()\ndef jietibaogaos():\n    timuid = request.args(0)\n    add = A(\'\xe6\x96\xb0\xe5\xbb\xba\', _href=URL(\'createjietibaogao\', args=[timuid]))\n    if timuid:\n        rows = db(db.jietibaogao.timu == timuid).select(db.jietibaogao.id,\n                                                        db.jietibaogao.zuozhe,\n                                                        db.jietibaogao.shijian,\n                                                        db.jietibaogao.jifen,\n                                                        orderby=~db.jietibaogao.jifen\n        )\n\n    else:\n        rows = db().select(db.jietibaogao.id,\n                           db.jietibaogao.timu,\n                           db.jietibaogao.zuozhe,\n                           db.jietibaogao.shijian,\n                           db.jietibaogao.jifen,\n                           orderby=~db.jietibaogao.jifen)\n    form = SQLTABLE(rows,\n                    headers={\'jietibaogao.id\': \'id\',\n                             \'jietibaogao.timu\': \'\xe9\xa2\x98\xe7\x9b\xae\',\n                             \'jietibaogao.zuozhe\': \'\xe4\xbd\x9c\xe8\x80\x85\',\n                             \'jietibaogao.shijian\': \'\xe6\x97\xb6\xe9\x97\xb4\',\n                             \'jietibaogao.jifen\': \'\xe7\xa7\xaf\xe5\x88\x86\',\n                    },\n                    extracolumns=[{\'label\': A(\'\xe6\x9f\xa5\xe7\x9c\x8b\', _href=\'#\'),\n                                   \'class\': \'\',  #class name of the header\n                                   \'width\': \'\',  #width in pixels or %\n                                   \'content\': lambda row, rc: A(\'\xe6\x9f\xa5\xe7\x9c\x8b\', _href=URL(\'viewjietibaogao\', args=[row.id])),\n                                   \'selected\': False}])\n    return dict(add=add,form=form)\n\n\n@auth.requires(auth.has_membership(role=\'teacher\'), requires_login=True)\ndef managejietibaogaos():\n    db.jietibaogao.jifen.writable = True\n    grid = SQLFORM.grid(db.jietibaogao, orderby=~db.jietibaogao.id)\n    return dict(form=grid)\n\n\n@auth.requires(auth.has_membership(role=\'teacher\'), requires_login=True)\ndef managetimus():\n    db.timu.jifen.writable = True\n    grid = SQLFORM.grid(\n        db.timu,\n        editable=True,\n        details=True,\n        selectable=None,\n        create=True\n    )\n    return dict(form=grid)\n\n\n@auth.requires(auth.has_membership(role=\'teacher\'), requires_login=True)\ndef tongguotimu():\n    row = db(db.timu.jifen == 0).select().first()\n    if row:\n        db.timu.jifen.writable = True\n        form = SQLFORM(db.timu, row.id, upload=URL(\'download\'))\n        if form.process().accepted:\n            response.flash = \'finished\'\n            redirect(request.url)\n    else:\n        return dict(form=\'\xe5\x85\xa8\xe9\x83\xa8\xe5\xb7\xb2\xe5\xae\x8c\xe6\x88\x90\')\n    return dict(form=form)\n\n\n@auth.requires(auth.has_membership(role=\'teacher\'), requires_login=True)\ndef tongguotijiao():\n    image = \'\'\n    row = db(db.tijiao.tongguo == False).select().first()\n    if row:\n        image = db.timu[row.timu].jietu\n        db.tijiao.tongguo.writable = True\n        form = SQLFORM(db.tijiao, row.id, upload=URL(\'download\'))\n        if form.process().accepted:\n            response.flash = \'finished\'\n            redirect(request.url)\n    else:\n        return dict(form=\'\xe5\x85\xa8\xe9\x83\xa8\xe5\xb7\xb2\xe5\xae\x8c\xe6\x88\x90\', image=image)\n    return dict(form=form, image=image)\n\n\n@auth.requires(auth.has_membership(role=\'teacher\'), requires_login=True)\ndef tongguojietibaogao():\n    image = \'\'\n    row = db(db.jietibaogao.jifen == 0).select().first()\n    if row:\n        image = db.timu[row.timu].jietu\n        db.jietibaogao.jifen.writable = True\n        form = SQLFORM(db.jietibaogao, row.id, upload=URL(\'download\'))\n        if form.process().accepted:\n            response.flash = \'finished\'\n            redirect(request.url)\n    else:\n        return dict(form=\'\xe5\x85\xa8\xe9\x83\xa8\xe5\xb7\xb2\xe5\xae\x8c\xe6\x88\x90\', image=image)\n    return dict(form=form, image=image)\n\n@auth.requires(auth.has_membership(role=\'teacher\'), requires_login=True)\n\ndef jiajianfen():\n    form=SQLFORM.grid(db.jiajianfen,orderby=~db.jiajianfen.id)\n    return dict(form=form)\n\ndef user():\n    """\n    exposes:\n    http://..../[app]/default/user/login\n    http://..../[app]/default/user/logout\n    http://..../[app]/default/user/register\n    http://..../[app]/default/user/profile\n    http://..../[app]/default/user/retrieve_password\n    http://..../[app]/default/user/change_password\n    http://..../[app]/default/user/manage_users (requires membership in\n    use @auth.requires_login()\n        @auth.requires_membership(\'group name\')\n        @auth.requires_permission(\'read\',\'table name\',record_id)\n    to decorate functions that need access control\n    """\n    return dict(form=auth())\n\n\n@cache.action()\ndef download():\n    """\n    allows downloading of uploaded files\n    http://..../[app]/default/download/[filename]\n    """\n    return response.download(request, db)\n\n\ndef call():\n    """\n    exposes services. for example:\n    http://..../[app]/default/call/jsonrpc\n    decorate with @services.jsonrpc the functions to expose\n    supports xml, json, xmlrpc, jsonrpc, amfrpc, rss, csv\n    """\n    return service()\n\n\n@auth.requires_login()\ndef api():\n    """\n    this is example of API with access control\n    WEB2PY provides Hypermedia API (Collection+JSON) Experimental\n    """\n    from gluon.contrib.hypermedia import Collection\n\n    rules = {\n        \'<tablename>\': {\'GET\': {}, \'POST\': {}, \'PUT\': {}, \'DELETE\': {}},\n    }\n    return Collection(db).process(request, response, rules)\n\n\ndef jisuanjifen():\n    userid=auth.user.id\n    sumjjf=db.jiajianfen.fenzhi.sum()\n    sumjtbg=db.jietibaogao.jifen.sum()\n    sumtj=db.timu.jifen.sum()\n    userjiajianfen=db(db.jiajianfen.zuozhe==userid).select(sumjjf).first()[sumjjf]\n    usertijiaos=db((db.tijiao.timu==db.timu.id) & (db.tijiao.zuozhe==userid)).select(sumtj,left=db.tijiao).first()[sumtj]\n    userjietibaogaos=db(db.jietibaogao.zuozhe==userid).select(sumjtbg).first()[sumjtbg]\n    jifen=userjiajianfen+usertijiaos+userjietibaogaos\n    db.auth_user[userid]=dict(jifen=jifen)\n    return jifen\n\n\n@auth.requires_login()\ndef myjiajianfen():\n    jiajianfen=db(db.jiajianfen.zuozhe==auth.user.id).select(orderby=~db.jiajianfen.id)\n    return dict(form=SQLTABLE(jiajianfen,\n                              headers={\'jiajianfen.id\':\'id\',\n                                       \'jiajianfen.zuozhe\':\'\xe7\x94\xa8\xe6\x88\xb7\',\n                                       \'jiajianfen.fenzhi\':\'\xe5\x88\x86\xe5\x80\xbc\',\n                                       \'jiajianfen.shijian\':\'\xe6\x97\xb6\xe9\x97\xb4\',\n                                       \'jiajianfen.beizhu\':\'\xe5\x8e\x9f\xe5\x9b\xa0\'}))\nresponse._vars=response._caller(viewtimu)\n'
p7
sS'snapshot'
p8
(dp9
S'exception'
p10
(dp11
S'__hash__'
p12
S"<method-wrapper '__hash__' of exceptions.ValueError object>"
p13
sS'__setattr__'
p14
S"<method-wrapper '__setattr__' of exceptions.ValueError object>"
p15
sS'__reduce_ex__'
p16
S'<built-in method __reduce_ex__ of exceptions.ValueError object>'
p17
sS'__getslice__'
p18
S"<method-wrapper '__getslice__' of exceptions.ValueError object>"
p19
sS'__getitem__'
p20
S"<method-wrapper '__getitem__' of exceptions.ValueError object>"
p21
sS'__setstate__'
p22
S'<built-in method __setstate__ of exceptions.ValueError object>'
p23
sS'__reduce__'
p24
S'<built-in method __reduce__ of exceptions.ValueError object>'
p25
sS'__str__'
p26
S"<method-wrapper '__str__' of exceptions.ValueError object>"
p27
sS'__format__'
p28
S'<built-in method __format__ of exceptions.ValueError object>'
p29
sS'__getattribute__'
p30
S"<method-wrapper '__getattribute__' of exceptions.ValueError object>"
p31
sS'__class__'
p32
S"<type 'exceptions.ValueError'>"
p33
sS'__unicode__'
p34
S'<built-in method __unicode__ of exceptions.ValueError object>'
p35
sS'__delattr__'
p36
S"<method-wrapper '__delattr__' of exceptions.ValueError object>"
p37
sS'__subclasshook__'
p38
S'<built-in method __subclasshook__ of type object>'
p39
sS'__repr__'
p40
S"<method-wrapper '__repr__' of exceptions.ValueError object>"
p41
sS'__dict__'
p42
S'{}'
p43
sS'args'
p44
S'("invalid literal for int() with base 10: \'17 11:00:30\'",)'
p45
sS'__sizeof__'
p46
S'<built-in method __sizeof__ of exceptions.ValueError object>'
p47
sS'__doc__'
p48
S"'Inappropriate argument value (of correct type).'"
p49
sS'__init__'
p50
S"<method-wrapper '__init__' of exceptions.ValueError object>"
p51
sS'__new__'
p52
S'<built-in method __new__ of type object>'
p53
ssS'evalue'
p54
S"invalid literal for int() with base 10: '17 11:00:30'"
p55
sS'request'
p56
cgluon.html
XML_unpickle
p57
(S's\xec^\x00\x00<div><table><tr><td style="font-weight:bold;vertical-align:top;">ajax</td><td style="vertical-align:top;">:</td><td><div>False</div></td></tr><tr><td style="font-weight:bold;vertical-align:top;">application</td><td style="vertical-align:top;">:</td><td><div>nwoi</div></td></tr><tr><td style="font-weight:bold;vertical-align:top;">args</td><td style="vertical-align:top;">:</td><td><div><table><tr><td><div>13</div></td></tr></table></div></td></tr><tr><td style="font-weight:bold;vertical-align:top;">cid</td><td style="vertical-align:top;">:</td><td><div>None</div></td></tr><tr><td style="font-weight:bold;vertical-align:top;">client</td><td style="vertical-align:top;">:</td><td><div>127.0.0.1</div></td></tr><tr><td style="font-weight:bold;vertical-align:top;">controller</td><td style="vertical-align:top;">:</td><td><div>default</div></td></tr><tr><td style="font-weight:bold;vertical-align:top;">cookies</td><td style="vertical-align:top;">:</td><td><div><table><tr><td style="font-weight:bold;vertical-align:top;">session_id_admin</td><td style="vertical-align:top;">:</td><td><div>127.0.0.1-1bf955ce-e978-4873-9253-3649021ad47a<table><tr><td style="font-weight:bold;vertical-align:top;">comment</td><td style="vertical-align:top;">:</td><td><div></div></td></tr><tr><td style="font-weight:bold;vertical-align:top;">domain</td><td style="vertical-align:top;">:</td><td><div></div></td></tr><tr><td style="font-weight:bold;vertical-align:top;">expires</td><td style="vertical-align:top;">:</td><td><div></div></td></tr><tr><td style="font-weight:bold;vertical-align:top;">httponly</td><td style="vertical-align:top;">:</td><td><div></div></td></tr><tr><td style="font-weight:bold;vertical-align:top;">max-age</td><td style="vertical-align:top;">:</td><td><div></div></td></tr><tr><td style="font-weight:bold;vertical-align:top;">path</td><td style="vertical-align:top;">:</td><td><div></div></td></tr><tr><td style="font-weight:bold;vertical-align:top;">secure</td><td style="vertical-align:top;">:</td><td><div></div></td></tr><tr><td style="font-weight:bold;vertical-align:top;">version</td><td style="vertical-align:top;">:</td><td><div></div></td></tr></table></div></td></tr><tr><td style="font-weight:bold;vertical-align:top;">session_id_nwoi</td><td style="vertical-align:top;">:</td><td><div>127.0.0.1-0d22a784-fcea-4c77-811c-0dd8108ac35c<table><tr><td style="font-weight:bold;vertical-align:top;">comment</td><td style="vertical-align:top;">:</td><td><div></div></td></tr><tr><td style="font-weight:bold;vertical-align:top;">domain</td><td style="vertical-align:top;">:</td><td><div></div></td></tr><tr><td style="font-weight:bold;vertical-align:top;">expires</td><td style="vertical-align:top;">:</td><td><div></div></td></tr><tr><td style="font-weight:bold;vertical-align:top;">httponly</td><td style="vertical-align:top;">:</td><td><div></div></td></tr><tr><td style="font-weight:bold;vertical-align:top;">max-age</td><td style="vertical-align:top;">:</td><td><div></div></td></tr><tr><td style="font-weight:bold;vertical-align:top;">path</td><td style="vertical-align:top;">:</td><td><div></div></td></tr><tr><td style="font-weight:bold;vertical-align:top;">secure</td><td style="vertical-align:top;">:</td><td><div></div></td></tr><tr><td style="font-weight:bold;vertical-align:top;">version</td><td style="vertical-align:top;">:</td><td><div></div></td></tr></table></div></td></tr><tr><td style="font-weight:bold;vertical-align:top;">session_id_welcome</td><td style="vertical-align:top;">:</td><td><div>127.0.0.1-6b4cbf45-a156-49ff-8ea3-472e34f57743<table><tr><td style="font-weight:bold;vertical-align:top;">comment</td><td style="vertical-align:top;">:</td><td><div></div></td></tr><tr><td style="font-weight:bold;vertical-align:top;">domain</td><td style="vertical-align:top;">:</td><td><div></div></td></tr><tr><td style="font-weight:bold;vertical-align:top;">expires</td><td style="vertical-align:top;">:</td><td><div></div></td></tr><tr><td style="font-weight:bold;vertical-align:top;">httponly</td><td style="vertical-align:top;">:</td><td><div></div></td></tr><tr><td style="font-weight:bold;vertical-align:top;">max-age</td><td style="vertical-align:top;">:</td><td><div></div></td></tr><tr><td style="font-weight:bold;vertical-align:top;">path</td><td style="vertical-align:top;">:</td><td><div></div></td></tr><tr><td style="font-weight:bold;vertical-align:top;">secure</td><td style="vertical-align:top;">:</td><td><div></div></td></tr><tr><td style="font-weight:bold;vertical-align:top;">version</td><td style="vertical-align:top;">:</td><td><div></div></td></tr></table></div></td></tr></table></div></td></tr><tr><td style="font-weight:bold;vertical-align:top;">env</td><td style="vertical-align:top;">:</td><td><div><table><tr><td style="font-weight:bold;vertical-align:top;">HTTP_ACCEPT</td><td style="vertical-align:top;">:</td><td><div>text/html,application/xhtml+xml,application/xml;q=0.9,*/*;q=0.8</div></td></tr><tr><td style="font-weight:bold;vertical-align:top;">HTTP_ACCEPT_ENCODING</td><td style="vertical-align:top;">:</td><td><div>gzip, deflate</div></td></tr><tr><td style="font-weight:bold;vertical-align:top;">HTTP_ACCEPT_LANGUAGE</td><td style="vertical-align:top;">:</td><td><div>zh-cn,zh;q=0.8,en-us;q=0.5,en;q=0.3</div></td></tr><tr><td style="font-weight:bold;vertical-align:top;">HTTP_CACHE_CONTROL</td><td style="vertical-align:top;">:</td><td><div>max-age=0</div></td></tr><tr><td style="font-weight:bold;vertical-align:top;">HTTP_CONNECTION</td><td style="vertical-align:top;">:</td><td><div>keep-alive</div></td></tr><tr><td style="font-weight:bold;vertical-align:top;">HTTP_COOKIE</td><td style="vertical-align:top;">:</td><td><div>session_id_welcome=127.0.0.1-6b4cbf45-a156-49ff-8ea3-472e34f57743; session_id_nwoi=127.0.0.1-0d22a784-fcea-4c77-811c-0dd8108ac35c; session_id_admin=127.0.0.1-1bf955ce-e978-4873-9253-3649021ad47a</div></td></tr><tr><td style="font-weight:bold;vertical-align:top;">HTTP_HOST</td><td style="vertical-align:top;">:</td><td><div>127.0.0.1:8000</div></td></tr><tr><td style="font-weight:bold;vertical-align:top;">HTTP_REFERER</td><td style="vertical-align:top;">:</td><td><div>http://127.0.0.1:8000/nwoi/default/timus</div></td></tr><tr><td style="font-weight:bold;vertical-align:top;">HTTP_USER_AGENT</td><td style="vertical-align:top;">:</td><td><div>Mozilla/5.0 (Windows NT 6.1; WOW64; rv:32.0) Gecko/20100101 Firefox/32.0</div></td></tr><tr><td style="font-weight:bold;vertical-align:top;">PATH_INFO</td><td style="vertical-align:top;">:</td><td><div>/nwoi/default/viewtimu/13</div></td></tr><tr><td style="font-weight:bold;vertical-align:top;">QUERY_STRING</td><td style="vertical-align:top;">:</td><td><div></div></td></tr><tr><td style="font-weight:bold;vertical-align:top;">REMOTE_ADDR</td><td style="vertical-align:top;">:</td><td><div>127.0.0.1</div></td></tr><tr><td style="font-weight:bold;vertical-align:top;">REMOTE_PORT</td><td style="vertical-align:top;">:</td><td><div>52308</div></td></tr><tr><td style="font-weight:bold;vertical-align:top;">REQUEST_METHOD</td><td style="vertical-align:top;">:</td><td><div>GET</div></td></tr><tr><td style="font-weight:bold;vertical-align:top;">SCRIPT_NAME</td><td style="vertical-align:top;">:</td><td><div></div></td></tr><tr><td style="font-weight:bold;vertical-align:top;">SERVER_NAME</td><td style="vertical-align:top;">:</td><td><div>chugle-PC</div></td></tr><tr><td style="font-weight:bold;vertical-align:top;">SERVER_PORT</td><td style="vertical-align:top;">:</td><td><div>8000</div></td></tr><tr><td style="font-weight:bold;vertical-align:top;">SERVER_PROTOCOL</td><td style="vertical-align:top;">:</td><td><div>HTTP/1.1</div></td></tr><tr><td style="font-weight:bold;vertical-align:top;">SERVER_SOFTWARE</td><td style="vertical-align:top;">:</td><td><div>Rocket 1.2.6</div></td></tr><tr><td style="font-weight:bold;vertical-align:top;">app_folders</td><td style="vertical-align:top;">:</td><td><div>set([&#x27;e:\\\\documents\\\\nwoi\\\\web2py\\\\applications\\\\admin\\\\&#x27;, &#x27;e:\\\\documents\\\\nwoi\\\\web2py\\\\applications\\\\welcome\\\\&#x27;, &#x27;e:\\\\documents\\\\nwoi\\\\web2py\\\\applications\\\\nwoi\\\\&#x27;])</div></td></tr><tr><td style="font-weight:bold;vertical-align:top;">applications_parent</td><td style="vertical-align:top;">:</td><td><div>e:\\documents\\nwoi\\web2py</div></td></tr><tr><td style="font-weight:bold;vertical-align:top;">cmd_args</td><td style="vertical-align:top;">:</td><td><div><table></table></div></td></tr><tr><td style="font-weight:bold;vertical-align:top;">cmd_options</td><td style="vertical-align:top;">:</td><td><div>&lt;Values at 0x4078888: {&#x27;verbose&#x27;: False, &#x27;ip&#x27;: &#x27;127.0.0.1&#x27;, &#x27;debuglevel&#x27;: 30, &#x27;with_scheduler&#x27;: False, &#x27;ips&#x27;: [&#x27;fe80::ccd:f85:3f57:d490%14&#x27;, &#x27;192.168.43.111&#x27;, &#x27;fe80::79ba:218c:bbc4:9c4b%15&#x27;, &#x27;2001:0:dd83:dca0:ccd:f85:3f57:d490&#x27;], &#x27;shutdown_timeout&#x27;: 5, &#x27;taskbar&#x27;: False, &#x27;with_coverage&#x27;: False, &#x27;scheduler_groups&#x27;: None, &#x27;port&#x27;: 8000, &#x27;maxthreads&#x27;: None, &#x27;softcron&#x27;: False, &#x27;server_name&#x27;: &#x27;chugle-PC&#x27;, &#x27;bpython&#x27;: False, &#x27;nogui&#x27;: False, &#x27;pid_filename&#x27;: &#x27;httpserver.pid&#x27;, &#x27;extcron&#x27;: False, &#x27;runcron&#x27;: False, &#x27;run_system_tests&#x27;: False, &#x27;test&#x27;: None, &#x27;folder&#x27;: &#x27;e:\\\\documents\\\\nwoi\\\\web2py&#x27;, &#x27;config&#x27;: &#x27;&#x27;, &#x27;minthreads&#x27;: None, &#x27;shell&#x27;: None, &#x27;run&#x27;: &#x27;&#x27;, &#x27;log_filename&#x27;: &#x27;httpserver.log&#x27;, &#x27;profiler_dir&#x27;: None, &#x27;args&#x27;: [&#x27;&#x27;], &#x27;socket_timeout&#x27;: 5, &#x27;ssl_ca_certificate&#x27;: None, &#x27;scheduler&#x27;: None, &#x27;interfaces&#x27;: None, &#x27;ssl_private_key&#x27;: &#x27;&#x27;, &#x27;gae&#x27;: None, &#x27;password&#x27;: &#x27;&lt;ask&gt;&#x27;, &#x27;request_queue_size&#x27;: 5, &#x27;ssl_certificate&#x27;: &#x27;&#x27;, &#x27;cronjob&#x27;: False, &#x27;numthreads&#x27;: None, &#x27;quiet&#x27;: False, &#x27;import_models&#x27;: False, &#x27;timeout&#x27;: 10, &#x27;plain&#x27;: False, &#x27;nobanner&#x27;: False}&gt;</div></td></tr><tr><td style="font-weight:bold;vertical-align:top;">db_sessions</td><td style="vertical-align:top;">:</td><td><div>set([])</div></td></tr><tr><td style="font-weight:bold;vertical-align:top;">debugging</td><td style="vertical-align:top;">:</td><td><div>False</div></td></tr><tr><td style="font-weight:bold;vertical-align:top;">gluon_parent</td><td style="vertical-align:top;">:</td><td><div>e:\\documents\\nwoi\\web2py</div></td></tr><tr><td style="font-weight:bold;vertical-align:top;">http_accept</td><td style="vertical-align:top;">:</td><td><div>text/html,application/xhtml+xml,application/xml;q=0.9,*/*;q=0.8</div></td></tr><tr><td style="font-weight:bold;vertical-align:top;">http_accept_encoding</td><td style="vertical-align:top;">:</td><td><div>gzip, deflate</div></td></tr><tr><td style="font-weight:bold;vertical-align:top;">http_accept_language</td><td style="vertical-align:top;">:</td><td><div>zh-cn,zh;q=0.8,en-us;q=0.5,en;q=0.3</div></td></tr><tr><td style="font-weight:bold;vertical-align:top;">http_cache_control</td><td style="vertical-align:top;">:</td><td><div>max-age=0</div></td></tr><tr><td style="font-weight:bold;vertical-align:top;">http_connection</td><td style="vertical-align:top;">:</td><td><div>keep-alive</div></td></tr><tr><td style="font-weight:bold;vertical-align:top;">http_cookie</td><td style="vertical-align:top;">:</td><td><div>session_id_welcome=127.0.0.1-6b4cbf45-a156-49ff-8ea3-472e34f57743; session_id_nwoi=127.0.0.1-0d22a784-fcea-4c77-811c-0dd8108ac35c; session_id_admin=127.0.0.1-1bf955ce-e978-4873-9253-3649021ad47a</div></td></tr><tr><td style="font-weight:bold;vertical-align:top;">http_host</td><td style="vertical-align:top;">:</td><td><div>127.0.0.1:8000</div></td></tr><tr><td style="font-weight:bold;vertical-align:top;">http_referer</td><td style="vertical-align:top;">:</td><td><div>http://127.0.0.1:8000/nwoi/default/timus</div></td></tr><tr><td style="font-weight:bold;vertical-align:top;">http_user_agent</td><td style="vertical-align:top;">:</td><td><div>Mozilla/5.0 (Windows NT 6.1; WOW64; rv:32.0) Gecko/20100101 Firefox/32.0</div></td></tr><tr><td style="font-weight:bold;vertical-align:top;">is_jython</td><td style="vertical-align:top;">:</td><td><div>False</div></td></tr><tr><td style="font-weight:bold;vertical-align:top;">is_pypy</td><td style="vertical-align:top;">:</td><td><div>False</div></td></tr><tr><td style="font-weight:bold;vertical-align:top;">is_source</td><td style="vertical-align:top;">:</td><td><div>True</div></td></tr><tr><td style="font-weight:bold;vertical-align:top;">local_hosts</td><td style="vertical-align:top;">:</td><td><div><table><tr><td><div>fe80::ccd:f85:3f57:d490%14</div></td></tr><tr><td><div>chugle-PC</div></td></tr><tr><td><div>::ffff:127.0.0.1</div></td></tr><tr><td><div>::1</div></td></tr><tr><td><div>2001:0:dd83:dca0:ccd:f85:3f57:d490</div></td></tr><tr><td><div>192.168.43.111</div></td></tr><tr><td><div>fe80::79ba:218c:bbc4:9c4b%15</div></td></tr><tr><td><div>127.0.0.1</div></td></tr></table></div></td></tr><tr><td style="font-weight:bold;vertical-align:top;">path_info</td><td style="vertical-align:top;">:</td><td><div>/nwoi/default/viewtimu/13</div></td></tr><tr><td style="font-weight:bold;vertical-align:top;">query_string</td><td style="vertical-align:top;">:</td><td><div></div></td></tr><tr><td style="font-weight:bold;vertical-align:top;">remote_addr</td><td style="vertical-align:top;">:</td><td><div>127.0.0.1</div></td></tr><tr><td style="font-weight:bold;vertical-align:top;">remote_port</td><td style="vertical-align:top;">:</td><td><div>52308</div></td></tr><tr><td style="font-weight:bold;vertical-align:top;">request_method</td><td style="vertical-align:top;">:</td><td><div>GET</div></td></tr><tr><td style="font-weight:bold;vertical-align:top;">request_uri</td><td style="vertical-align:top;">:</td><td><div>/nwoi/default/viewtimu/13</div></td></tr><tr><td style="font-weight:bold;vertical-align:top;">script_name</td><td style="vertical-align:top;">:</td><td><div></div></td></tr><tr><td style="font-weight:bold;vertical-align:top;">server_name</td><td style="vertical-align:top;">:</td><td><div>chugle-PC</div></td></tr><tr><td style="font-weight:bold;vertical-align:top;">server_port</td><td style="vertical-align:top;">:</td><td><div>8000</div></td></tr><tr><td style="font-weight:bold;vertical-align:top;">server_protocol</td><td style="vertical-align:top;">:</td><td><div>HTTP/1.1</div></td></tr><tr><td style="font-weight:bold;vertical-align:top;">server_software</td><td style="vertical-align:top;">:</td><td><div>Rocket 1.2.6</div></td></tr><tr><td style="font-weight:bold;vertical-align:top;">web2py_path</td><td style="vertical-align:top;">:</td><td><div>e:\\documents\\nwoi\\web2py</div></td></tr><tr><td style="font-weight:bold;vertical-align:top;">web2py_version</td><td style="vertical-align:top;">:</td><td><div>2.9.11-stable+timestamp.2014.09.15.23.35.11</div></td></tr><tr><td style="font-weight:bold;vertical-align:top;">wsgi.errors</td><td style="vertical-align:top;">:</td><td><div>&lt;open file &#x27;&lt;stderr&gt;&#x27;, mode &#x27;w&#x27; at 0x0000000001CF6150&gt;</div></td></tr><tr><td style="font-weight:bold;vertical-align:top;">wsgi.file_wrapper</td><td style="vertical-align:top;">:</td><td><div>&lt;class wsgiref.util.FileWrapper at 0x0000000002774528&gt;</div></td></tr><tr><td style="font-weight:bold;vertical-align:top;">wsgi.input</td><td style="vertical-align:top;">:</td><td><div>&lt;socket._fileobject object at 0x000000000AB43CF0&gt;</div></td></tr><tr><td style="font-weight:bold;vertical-align:top;">wsgi.multiprocess</td><td style="vertical-align:top;">:</td><td><div>False</div></td></tr><tr><td style="font-weight:bold;vertical-align:top;">wsgi.multithread</td><td style="vertical-align:top;">:</td><td><div>True</div></td></tr><tr><td style="font-weight:bold;vertical-align:top;">wsgi.run_once</td><td style="vertical-align:top;">:</td><td><div>False</div></td></tr><tr><td style="font-weight:bold;vertical-align:top;">wsgi.url_scheme</td><td style="vertical-align:top;">:</td><td><div>http</div></td></tr><tr><td style="font-weight:bold;vertical-align:top;">wsgi.version</td><td style="vertical-align:top;">:</td><td><div><table><tr><td><div>1</div></td></tr><tr><td><div>0</div></td></tr></table></div></td></tr><tr><td style="font-weight:bold;vertical-align:top;">wsgi_errors</td><td style="vertical-align:top;">:</td><td><div>&lt;open file &#x27;&lt;stderr&gt;&#x27;, mode &#x27;w&#x27; at 0x0000000001CF6150&gt;</div></td></tr><tr><td style="font-weight:bold;vertical-align:top;">wsgi_file_wrapper</td><td style="vertical-align:top;">:</td><td><div>&lt;class wsgiref.util.FileWrapper at 0x0000000002774528&gt;</div></td></tr><tr><td style="font-weight:bold;vertical-align:top;">wsgi_input</td><td style="vertical-align:top;">:</td><td><div>&lt;socket._fileobject object at 0x000000000AB43CF0&gt;</div></td></tr><tr><td style="font-weight:bold;vertical-align:top;">wsgi_multiprocess</td><td style="vertical-align:top;">:</td><td><div>False</div></td></tr><tr><td style="font-weight:bold;vertical-align:top;">wsgi_multithread</td><td style="vertical-align:top;">:</td><td><div>True</div></td></tr><tr><td style="font-weight:bold;vertical-align:top;">wsgi_run_once</td><td style="vertical-align:top;">:</td><td><div>False</div></td></tr><tr><td style="font-weight:bold;vertical-align:top;">wsgi_url_scheme</td><td style="vertical-align:top;">:</td><td><div>http</div></td></tr><tr><td style="font-weight:bold;vertical-align:top;">wsgi_version</td><td style="vertical-align:top;">:</td><td><div><table><tr><td><div>1</div></td></tr><tr><td><div>0</div></td></tr></table></div></td></tr></table></div></td></tr><tr><td style="font-weight:bold;vertical-align:top;">extension</td><td style="vertical-align:top;">:</td><td><div>html</div></td></tr><tr><td style="font-weight:bold;vertical-align:top;">folder</td><td style="vertical-align:top;">:</td><td><div>e:\\documents\\nwoi\\web2py\\applications\\nwoi\\</div></td></tr><tr><td style="font-weight:bold;vertical-align:top;">function</td><td style="vertical-align:top;">:</td><td><div>viewtimu</div></td></tr><tr><td style="font-weight:bold;vertical-align:top;">global_settings</td><td style="vertical-align:top;">:</td><td><div><table><tr><td style="font-weight:bold;vertical-align:top;">app_folders</td><td style="vertical-align:top;">:</td><td><div>set([&#x27;e:\\\\documents\\\\nwoi\\\\web2py\\\\applications\\\\admin\\\\&#x27;, &#x27;e:\\\\documents\\\\nwoi\\\\web2py\\\\applications\\\\welcome\\\\&#x27;, &#x27;e:\\\\documents\\\\nwoi\\\\web2py\\\\applications\\\\nwoi\\\\&#x27;])</div></td></tr><tr><td style="font-weight:bold;vertical-align:top;">applications_parent</td><td style="vertical-align:top;">:</td><td><div>e:\\documents\\nwoi\\web2py</div></td></tr><tr><td style="font-weight:bold;vertical-align:top;">cmd_args</td><td style="vertical-align:top;">:</td><td><div><table></table></div></td></tr><tr><td style="font-weight:bold;vertical-align:top;">cmd_options</td><td style="vertical-align:top;">:</td><td><div>&lt;Values at 0x4078888: {&#x27;verbose&#x27;: False, &#x27;ip&#x27;: &#x27;127.0.0.1&#x27;, &#x27;debuglevel&#x27;: 30, &#x27;with_scheduler&#x27;: False, &#x27;ips&#x27;: [&#x27;fe80::ccd:f85:3f57:d490%14&#x27;, &#x27;192.168.43.111&#x27;, &#x27;fe80::79ba:218c:bbc4:9c4b%15&#x27;, &#x27;2001:0:dd83:dca0:ccd:f85:3f57:d490&#x27;], &#x27;shutdown_timeout&#x27;: 5, &#x27;taskbar&#x27;: False, &#x27;with_coverage&#x27;: False, &#x27;scheduler_groups&#x27;: None, &#x27;port&#x27;: 8000, &#x27;maxthreads&#x27;: None, &#x27;softcron&#x27;: False, &#x27;server_name&#x27;: &#x27;chugle-PC&#x27;, &#x27;bpython&#x27;: False, &#x27;nogui&#x27;: False, &#x27;pid_filename&#x27;: &#x27;httpserver.pid&#x27;, &#x27;extcron&#x27;: False, &#x27;runcron&#x27;: False, &#x27;run_system_tests&#x27;: False, &#x27;test&#x27;: None, &#x27;folder&#x27;: &#x27;e:\\\\documents\\\\nwoi\\\\web2py&#x27;, &#x27;config&#x27;: &#x27;&#x27;, &#x27;minthreads&#x27;: None, &#x27;shell&#x27;: None, &#x27;run&#x27;: &#x27;&#x27;, &#x27;log_filename&#x27;: &#x27;httpserver.log&#x27;, &#x27;profiler_dir&#x27;: None, &#x27;args&#x27;: [&#x27;&#x27;], &#x27;socket_timeout&#x27;: 5, &#x27;ssl_ca_certificate&#x27;: None, &#x27;scheduler&#x27;: None, &#x27;interfaces&#x27;: None, &#x27;ssl_private_key&#x27;: &#x27;&#x27;, &#x27;gae&#x27;: None, &#x27;password&#x27;: &#x27;&lt;ask&gt;&#x27;, &#x27;request_queue_size&#x27;: 5, &#x27;ssl_certificate&#x27;: &#x27;&#x27;, &#x27;cronjob&#x27;: False, &#x27;numthreads&#x27;: None, &#x27;quiet&#x27;: False, &#x27;import_models&#x27;: False, &#x27;timeout&#x27;: 10, &#x27;plain&#x27;: False, &#x27;nobanner&#x27;: False}&gt;</div></td></tr><tr><td style="font-weight:bold;vertical-align:top;">db_sessions</td><td style="vertical-align:top;">:</td><td><div>set([])</div></td></tr><tr><td style="font-weight:bold;vertical-align:top;">debugging</td><td style="vertical-align:top;">:</td><td><div>False</div></td></tr><tr><td style="font-weight:bold;vertical-align:top;">gluon_parent</td><td style="vertical-align:top;">:</td><td><div>e:\\documents\\nwoi\\web2py</div></td></tr><tr><td style="font-weight:bold;vertical-align:top;">is_jython</td><td style="vertical-align:top;">:</td><td><div>False</div></td></tr><tr><td style="font-weight:bold;vertical-align:top;">is_pypy</td><td style="vertical-align:top;">:</td><td><div>False</div></td></tr><tr><td style="font-weight:bold;vertical-align:top;">is_source</td><td style="vertical-align:top;">:</td><td><div>True</div></td></tr><tr><td style="font-weight:bold;vertical-align:top;">local_hosts</td><td style="vertical-align:top;">:</td><td><div><table><tr><td><div>fe80::ccd:f85:3f57:d490%14</div></td></tr><tr><td><div>chugle-PC</div></td></tr><tr><td><div>::ffff:127.0.0.1</div></td></tr><tr><td><div>::1</div></td></tr><tr><td><div>2001:0:dd83:dca0:ccd:f85:3f57:d490</div></td></tr><tr><td><div>192.168.43.111</div></td></tr><tr><td><div>fe80::79ba:218c:bbc4:9c4b%15</div></td></tr><tr><td><div>127.0.0.1</div></td></tr></table></div></td></tr><tr><td style="font-weight:bold;vertical-align:top;">web2py_version</td><td style="vertical-align:top;">:</td><td><div>2.9.11-stable+timestamp.2014.09.15.23.35.11</div></td></tr></table></div></td></tr><tr><td style="font-weight:bold;vertical-align:top;">is_https</td><td style="vertical-align:top;">:</td><td><div>False</div></td></tr><tr><td style="font-weight:bold;vertical-align:top;">is_local</td><td style="vertical-align:top;">:</td><td><div>True</div></td></tr><tr><td style="font-weight:bold;vertical-align:top;">is_restful</td><td style="vertical-align:top;">:</td><td><div>False</div></td></tr><tr><td style="font-weight:bold;vertical-align:top;">is_sheduler</td><td style="vertical-align:top;">:</td><td><div>None</div></td></tr><tr><td style="font-weight:bold;vertical-align:top;">is_shell</td><td style="vertical-align:top;">:</td><td><div>None</div></td></tr><tr><td style="font-weight:bold;vertical-align:top;">now</td><td style="vertical-align:top;">:</td><td><div>datetime.datetime(2014, 10, 17, 11, 24, 8, 491000)</div></td></tr><tr><td style="font-weight:bold;vertical-align:top;">raw_args</td><td style="vertical-align:top;">:</td><td><div>13</div></td></tr><tr><td style="font-weight:bold;vertical-align:top;">raw_extension</td><td style="vertical-align:top;">:</td><td><div>None</div></td></tr><tr><td style="font-weight:bold;vertical-align:top;">url</td><td style="vertical-align:top;">:</td><td><div>/nwoi/default/viewtimu/13</div></td></tr><tr><td style="font-weight:bold;vertical-align:top;">utcnow</td><td style="vertical-align:top;">:</td><td><div>datetime.datetime(2014, 10, 17, 3, 24, 8, 491000)</div></td></tr><tr><td style="font-weight:bold;vertical-align:top;">uuid</td><td style="vertical-align:top;">:</td><td><div>nwoi/127.0.0.1.2014-10-17.11-24-08.664291de-3503-4ce0-9910-ed5e85c9cc6a</div></td></tr><tr><td style="font-weight:bold;vertical-align:top;">wsgi</td><td style="vertical-align:top;">:</td><td><div>&lt;gluon.main.LazyWSGI object at 0x000000000949A320&gt;</div></td></tr></table></div>'
tRp58
sS'frames'
p59
(lp60
(dp61
S'file'
p62
S'E:\\documents\\nwoi\\web2py\\gluon\\restricted.py'
p63
sS'dump'
p64
(dp65
S'environment'
p66
S"{'A': <class 'gluon.html.A'>, 'ANY_OF': <class 'gluon.validators.ANY_OF'>, 'ASSIGNJS': <function ASSIGNJS>, 'Auth': <class 'gluon.tools.Auth'>, 'B': <class 'gluon.html.B'>, 'BEAUTIFY': <class 'gluon.html.BEAUTIFY'>, 'BODY': <class 'gluon.html.BODY'>, 'BR': <class 'gluon.html.BR'>, 'BUTTON': <class 'gluon.html.BUTTON'>, 'CAT': <class 'gluon.html.CAT'>, ...}"
p67
sS'ccode'
p68
S'<code object <module> at 000000000995F8B0, file ...plications\\nwoi\\controllers/default.py", line 11>'
p69
ssS'lnum'
p70
I224
sS'lines'
p71
(dp72
I224
S'        exec ccode in environment'
p73
sI225
S'    except HTTP:'
p74
sI226
S'        raise'
p75
sI227
S'    except RestrictedError:'
p76
sI228
S'        # do not encapsulate (obfuscate) the original RestrictedError'
p77
sI219
S'    try:'
p78
sI220
S'        if isinstance(code, types.CodeType):'
p79
sI221
S'            ccode = code'
p80
sI222
S'        else:'
p81
sI223
S'            ccode = compile2(code, layer)'
p82
ssS'call'
p83
S'(code="# -*- coding: utf-8 -*-\\n# this file is released ...\\x9b\\xa0\'}))\\nresponse._vars=response._caller(viewtimu)\\n", environment={\'A\': <class \'gluon.html.A\'>, \'ANY_OF\': <class \'gluon.validators.ANY_OF\'>, \'ASSIGNJS\': <function ASSIGNJS>, \'Auth\': <class \'gluon.tools.Auth\'>, \'B\': <class \'gluon.html.B\'>, \'BEAUTIFY\': <class \'gluon.html.BEAUTIFY\'>, \'BODY\': <class \'gluon.html.BODY\'>, \'BR\': <class \'gluon.html.BR\'>, \'BUTTON\': <class \'gluon.html.BUTTON\'>, \'CAT\': <class \'gluon.html.CAT\'>, ...}, layer=r\'e:\\documents\\nwoi\\web2py\\applications\\nwoi\\controllers/default.py\')'
p84
sS'func'
p85
S'restricted'
p86
sa(dp87
g62
S'e:\\documents\\nwoi\\web2py\\applications\\nwoi\\controllers\\default.py'
p88
sg64
(dp89
sg70
I392
sg71
(dp90
I384
S'def myjiajianfen():'
p91
sI385
S'    jiajianfen=db(db.jiajianfen.zuozhe==auth.user.id).select(orderby=~db.jiajianfen.id)'
p92
sI386
S'    return dict(form=SQLTABLE(jiajianfen,'
p93
sI387
S"                              headers={'jiajianfen.id':'id',"
p94
sI388
S"                                       'jiajianfen.zuozhe':'\xe7\x94\xa8\xe6\x88\xb7',"
p95
sI389
S"                                       'jiajianfen.fenzhi':'\xe5\x88\x86\xe5\x80\xbc',"
p96
sI390
S"                                       'jiajianfen.shijian':'\xe6\x97\xb6\xe9\x97\xb4',"
p97
sI391
S"                                       'jiajianfen.beizhu':'\xe5\x8e\x9f\xe5\x9b\xa0'}))"
p98
sI382
S''
sI383
S'@auth.requires_login()'
p99
ssg83
S'()'
p100
sg85
S'<module>'
p101
sa(dp102
g62
S'E:\\documents\\nwoi\\web2py\\gluon\\globals.py'
p103
sg64
(dp104
S'self'
p105
S'undefined'
p106
sS'f'
S'<function viewtimu>'
p107
ssg70
I392
sg71
(dp108
I387
S"        self.flash = ''            # used by the default view layout"
p109
sI388
S'        self.meta = Storage()      # used by web2py_ajax.html'
p110
sI389
S'        self.menu = []             # used by the default view layout'
p111
sI390
S'        self.files = []            # used by web2py_ajax.html'
p112
sI391
S'        self._vars = None'
p113
sI392
S'        self._caller = lambda f: f()'
p114
sI393
S'        self._view_environment = None'
p115
sI394
S'        self._custom_commit = None'
p116
sI395
S'        self._custom_rollback = None'
p117
sI396
S"        self.generic_patterns = ['*']"
p118
ssg83
S'(f=<function viewtimu>)'
p119
sg85
S'<lambda>'
p120
sa(dp121
g62
S'E:\\documents\\nwoi\\web2py\\gluon\\tools.py'
p122
sg64
(dp123
S'action'
p124
S'<function viewtimu>'
p125
sS'a'
S'()'
p126
sS'b'
g43
ssg70
I3439
sg71
(dp127
I3434
S'                    flag = condition'
p128
sI3435
S'                if not flag:'
p129
sI3436
S'                    current.session.flash = self.messages.access_denied'
p130
sI3437
S'                    return call_or_redirect('
p131
sI3438
S'                        self.settings.on_failed_authorization)'
p132
sI3439
S'                return action(*a, **b)'
p133
sI3440
S'            f.__doc__ = action.__doc__'
p134
sI3441
S'            f.__name__ = action.__name__'
p135
sI3442
S'            f.__dict__.update(action.__dict__)'
p136
sI3443
S'            return f'
p137
ssg83
S'(*a=(), **b={})'
p138
sg85
S'f'
sa(dp139
g62
S'e:\\documents\\nwoi\\web2py\\applications\\nwoi\\controllers\\default.py'
p140
sg64
(dp141
S'auth.user.id'
p142
S'2L'
p143
sS'db.pinglun'
p144
S'<Table pinglun (id,timu,zuozhe,shijian,jietu,neirong)>'
p145
sS'auth.user'
p146
S"<Row {'first_name': 'teacher', 'last_name': '000...@teacher.com', 'registration_key': '', 'id': 2L}>"
p147
sS'global auth'
p148
S'<gluon.tools.Auth object>'
p149
sS'global db'
p150
S'<DAL uri="sqlite://storage.sqlite">'
p151
sS'db.pinglun.zuozhe'
p152
S'<gluon.dal.Field object>'
p153
ssg70
I129
sg71
(dp154
I128
S"    jietibaogaourl=A('\xe8\xa7\xa3\xe9\xa2\x98\xe6\x8a\xa5\xe5\x91\x8a',_href=URL('jietibaogaos',args=[timuid]))"
p155
sI129
S'    pingluns=db(db.pinglun.timu==timuid).select()'
p156
sI130
S'    formpl=[]'
p157
sI131
S'    for pl in pingluns:'
p158
sI132
S"        if 'teacher' in auth.user_group(auth.user.id):"
p159
sI133
S'            pass'
p160
sI124
S'        tjid = db.tijiao(db.tijiao.timu == timuid).id'
p161
sI125
S"        tijiaourl = A('\xe5\xb7\xb2\xe6\x8f\x90\xe4\xba\xa4', _href=URL('viewtijiao', args=[tjid]))"
p162
sI126
S'    else:'
p163
sI127
S"        tijiaourl = A('\xe6\x8f\x90\xe4\xba\xa4', _href=URL('tijiao', args=[timuid]))"
p164
ssg83
S'()'
p165
sg85
S'viewtimu'
p166
sa(dp167
g62
S'E:\\documents\\nwoi\\web2py\\gluon\\dal.py'
p168
sg64
(dp169
S'self.query'
p170
S'<Query (pinglun.timu = 13)>'
p171
sS'adapter.select'
p172
S'<bound method SQLiteAdapter.select of <gluon.dal.SQLiteAdapter object>>'
p173
sS'fields'
p174
S'[<gluon.dal.Field object>, <gluon.dal.Field object>, <gluon.dal.Field object>, <gluon.dal.Field object>, <gluon.dal.Field object>, <gluon.dal.Field object>]'
p175
sS'adapter'
p176
S'<gluon.dal.SQLiteAdapter object>'
p177
sS'attributes'
p178
g43
sS'self'
p179
S'<Set (pinglun.timu = 13)>'
p180
ssg70
I10749
sg71
(dp181
I10752
S'        return Expression(self.db, self._select(*fields, **attributes))'
p182
sI10753
S''
sI10744
S"                                    attributes.get('join', None),"
p183
sI10745
S"                                    attributes.get('left', None),"
p184
sI10746
S"                                    attributes.get('orderby', None),"
p185
sI10747
S"                                    attributes.get('groupby', None))"
p186
sI10748
S'        fields = adapter.expand_all(fields, tablenames)'
p187
sI10749
S'        return adapter.select(self.query, fields, attributes)'
p188
sI10750
S''
sI10751
S'    def nested_select(self, *fields, **attributes):'
p189
ssg83
S'(self=<Set (pinglun.timu = 13)>, *fields=[<gluon.dal.Field object>, <gluon.dal.Field object>, <gluon.dal.Field object>, <gluon.dal.Field object>, <gluon.dal.Field object>, <gluon.dal.Field object>], **attributes={})'
p190
sg85
S'select'
p191
sa(dp192
g62
S'E:\\documents\\nwoi\\web2py\\gluon\\dal.py'
p193
sg64
(dp194
S'fields'
p195
S'[<gluon.dal.Field object>, <gluon.dal.Field object>, <gluon.dal.Field object>, <gluon.dal.Field object>, <gluon.dal.Field object>, <gluon.dal.Field object>]'
p196
sS'self'
p197
S'<gluon.dal.SQLiteAdapter object>'
p198
sS').select'
p199
S'<bound method SQLiteAdapter.select of <gluon.dal.SQLiteAdapter object>>'
p200
sS'attributes'
p201
g43
sS'global SQLiteAdapter'
p202
S"<class 'gluon.dal.SQLiteAdapter'>"
p203
sS'query'
p204
S'<Query (pinglun.timu = 13)>'
p205
sS'builtinsuper'
p206
S"<type 'super'>"
p207
ssg70
I2472
sg71
(dp208
I2467
S'        Note that the entire database, rather than one record, is locked'
p209
sI2468
S'        (it will be locked eventually anyway by the following UPDATE).'
p210
sI2469
S'        """'
p211
sI2470
S"        if attributes.get('for_update', False) and not 'cache' in attributes:"
p212
sI2471
S"            self.execute('BEGIN IMMEDIATE TRANSACTION;')"
p213
sI2472
S'        return super(SQLiteAdapter, self).select(query, fields, attributes)'
p214
sI2473
S''
sI2474
S''
sI2475
S'class SpatiaLiteAdapter(SQLiteAdapter):'
p215
sI2476
S"    drivers = ('sqlite3', 'sqlite2')"
p216
ssg83
S'(self=<gluon.dal.SQLiteAdapter object>, query=<Query (pinglun.timu = 13)>, fields=[<gluon.dal.Field object>, <gluon.dal.Field object>, <gluon.dal.Field object>, <gluon.dal.Field object>, <gluon.dal.Field object>, <gluon.dal.Field object>], attributes={})'
p217
sg85
g191
sa(dp218
g62
S'E:\\documents\\nwoi\\web2py\\gluon\\dal.py'
p219
sg64
(dp220
S'fields'
p221
S'[<gluon.dal.Field object>, <gluon.dal.Field object>, <gluon.dal.Field object>, <gluon.dal.Field object>, <gluon.dal.Field object>, <gluon.dal.Field object>]'
p222
sS'self'
p223
S'<gluon.dal.SQLiteAdapter object>'
p224
sS'attributes'
p225
g43
sS'self._select_aux'
p226
S'<bound method SQLiteAdapter._select_aux of <gluon.dal.SQLiteAdapter object>>'
p227
sS'sql'
p228
S"'SELECT  pinglun.id, pinglun.timu, pinglun.zuozhe...n.neirong FROM pinglun WHERE (pinglun.timu = 13);'"
p229
ssg70
I1881
sg71
(dp230
I1876
S'            return cache_model('
p231
sI1877
S'                key,'
p232
sI1878
S'                lambda self=self, args=args: self._select_aux(*args),'
p233
sI1879
S'                time_expire)'
p234
sI1880
S'        else:'
p235
sI1881
S'            return self._select_aux(sql, fields, attributes)'
p236
sI1882
S''
sI1883
S'    def _count(self, query, distinct=None):'
p237
sI1884
S'        tablenames = self.tables(query)'
p238
sI1885
S'        if query:'
p239
ssg83
S'(self=<gluon.dal.SQLiteAdapter object>, query=<Query (pinglun.timu = 13)>, fields=[<gluon.dal.Field object>, <gluon.dal.Field object>, <gluon.dal.Field object>, <gluon.dal.Field object>, <gluon.dal.Field object>, <gluon.dal.Field object>], attributes={})'
p240
sg85
g191
sa(dp241
g62
S'E:\\documents\\nwoi\\web2py\\gluon\\dal.py'
p242
sg64
(dp243
S'self._fetchall'
p244
S'<bound method SQLiteAdapter._fetchall of <gluon.dal.SQLiteAdapter object>>'
p245
sS'self'
p246
S'<gluon.dal.SQLiteAdapter object>'
p247
sS'rows'
p248
g106
ssg70
I1847
sg71
(dp249
I1842
S'    def _select_aux(self, sql, fields, attributes):'
p250
sI1843
S'        args_get = attributes.get'
p251
sI1844
S"        cache = args_get('cache',None)"
p252
sI1845
S'        if not cache:'
p253
sI1846
S'            self.execute(sql)'
p254
sI1847
S'            rows = self._fetchall()'
p255
sI1848
S'        else:'
p256
sI1849
S'            (cache_model, time_expire) = cache'
p257
sI1850
S"            key = self.uri + '/' + sql + '/rows'"
p258
sI1851
S'            if len(key)>200: key = hashlib_md5(key).hexdigest()'
p259
ssg83
S"(self=<gluon.dal.SQLiteAdapter object>, sql='SELECT  pinglun.id, pinglun.timu, pinglun.zuozhe...n.neirong FROM pinglun WHERE (pinglun.timu = 13);', fields=[<gluon.dal.Field object>, <gluon.dal.Field object>, <gluon.dal.Field object>, <gluon.dal.Field object>, <gluon.dal.Field object>, <gluon.dal.Field object>], attributes={})"
p260
sg85
S'_select_aux'
p261
sa(dp262
g62
S'E:\\documents\\nwoi\\web2py\\gluon\\dal.py'
p263
sg64
(dp264
S'self.cursor'
p265
S'<sqlite3.Cursor object>'
p266
sS'self'
p267
S'<gluon.dal.SQLiteAdapter object>'
p268
sS'self.cursor.fetchall'
p269
S'<built-in method fetchall of sqlite3.Cursor object>'
p270
ssg70
I1840
sg71
(dp271
I1835
S"            sql_o += ' LIMIT %i OFFSET %i' % (lmax - lmin, lmin)"
p272
sI1836
S"        return 'SELECT %s %s FROM %s%s%s;' % \\"
p273
sI1837
S'            (sql_s, sql_f, sql_t, sql_w, sql_o)'
p274
sI1838
S''
sI1839
S'    def _fetchall(self):'
p275
sI1840
S'        return self.cursor.fetchall()'
p276
sI1841
S''
sI1842
S'    def _select_aux(self, sql, fields, attributes):'
p277
sI1843
S'        args_get = attributes.get'
p278
sI1844
S"        cache = args_get('cache',None)"
p279
ssg83
S'(self=<gluon.dal.SQLiteAdapter object>)'
p280
sg85
S'_fetchall'
p281
sa(dp282
g62
S'D:\\program files\\WinPython-64bit-2.7.6.4\\python-2.7.6.amd64\\lib\\sqlite3\\dbapi2.py'
p283
sg64
(dp284
S'datetime.date'
p285
S"<type 'datetime.date'>"
p286
sS'val'
p287
S"'2014-10-17 11:00:30'"
p288
sS'global datetime'
p289
S"<module 'datetime' (built-in)>"
p290
sS'val.split'
p291
S'<built-in method split of str object>'
p292
sS'builtinint'
p293
S"<type 'int'>"
p294
sS'builtinmap'
p295
S'<built-in function map>'
p296
ssg70
I63
sg71
(dp297
I64
S''
sI65
S'    def convert_timestamp(val):'
p298
sI66
S'        datepart, timepart = val.split(" ")'
p299
sI67
S'        year, month, day = map(int, datepart.split("-"))'
p300
sI58
S''
sI59
S'    def adapt_datetime(val):'
p301
sI60
S'        return val.isoformat(" ")'
p302
sI61
S''
sI62
S'    def convert_date(val):'
p303
sI63
S'        return datetime.date(*map(int, val.split("-")))'
p304
ssg83
S"(val='2014-10-17 11:00:30')"
p305
sg85
S'convert_date'
p306
sasS'pyver'
p307
S'Python 2.7.6: D:\\program files\\WinPython-64bit-2.7.6.4\\python-2.7.6.amd64\\python.exe (prefix: D:\\program files\\WinPython-64bit-2.7.6.4\\python-2.7.6.amd64)'
p308
sS'session'
p309
g57
(S's\x95\x0b\x00\x00<div><table><tr><td style="font-weight:bold;vertical-align:top;">auth</td><td style="vertical-align:top;">:</td><td><div><table><tr><td style="font-weight:bold;vertical-align:top;">expiration</td><td style="vertical-align:top;">:</td><td><div>3600</div></td></tr><tr><td style="font-weight:bold;vertical-align:top;">hmac_key</td><td style="vertical-align:top;">:</td><td><div>6723fe05-acf3-4717-9e53-4ed26ab7939d</div></td></tr><tr><td style="font-weight:bold;vertical-align:top;">last_visit</td><td style="vertical-align:top;">:</td><td><div>datetime.datetime(2014, 10, 17, 11, 22, 58, 60000)</div></td></tr><tr><td style="font-weight:bold;vertical-align:top;">remember_me</td><td style="vertical-align:top;">:</td><td><div>False</div></td></tr><tr><td style="font-weight:bold;vertical-align:top;">user</td><td style="vertical-align:top;">:</td><td><div><table><tr><td style="font-weight:bold;vertical-align:top;">email</td><td style="vertical-align:top;">:</td><td><div>teacher@teacher.com</div></td></tr><tr><td style="font-weight:bold;vertical-align:top;">first_name</td><td style="vertical-align:top;">:</td><td><div>teacher</div></td></tr><tr><td style="font-weight:bold;vertical-align:top;">id</td><td style="vertical-align:top;">:</td><td><div>2L</div></td></tr><tr><td style="font-weight:bold;vertical-align:top;">jifen</td><td style="vertical-align:top;">:</td><td><div>1021L</div></td></tr><tr><td style="font-weight:bold;vertical-align:top;">last_name</td><td style="vertical-align:top;">:</td><td><div>000000</div></td></tr><tr><td style="font-weight:bold;vertical-align:top;">registration_id</td><td style="vertical-align:top;">:</td><td><div></div></td></tr><tr><td style="font-weight:bold;vertical-align:top;">registration_key</td><td style="vertical-align:top;">:</td><td><div></div></td></tr><tr><td style="font-weight:bold;vertical-align:top;">reset_password_key</td><td style="vertical-align:top;">:</td><td><div></div></td></tr><tr><td style="font-weight:bold;vertical-align:top;">yingcang</td><td style="vertical-align:top;">:</td><td><div>False</div></td></tr></table></div></td></tr><tr><td style="font-weight:bold;vertical-align:top;">user_groups</td><td style="vertical-align:top;">:</td><td><div><table><tr><td style="font-weight:bold;vertical-align:top;">2</td><td style="vertical-align:top;">:</td><td><div>user_2</div></td></tr><tr><td style="font-weight:bold;vertical-align:top;">3</td><td style="vertical-align:top;">:</td><td><div>teacher</div></td></tr></table></div></td></tr></table></div></td></tr><tr><td style="font-weight:bold;vertical-align:top;">flash</td><td style="vertical-align:top;">:</td><td><div>None</div></td></tr><tr><td style="font-weight:bold;vertical-align:top;">last_orderby</td><td style="vertical-align:top;">:</td><td><div>None</div></td></tr><tr><td style="font-weight:bold;vertical-align:top;">last_query</td><td style="vertical-align:top;">:</td><td><div>db.pinglun.id&gt;0</div></td></tr></table></div>'
tRp310
sS'etype'
p311
S"<type 'exceptions.ValueError'>"
p312
sS'date'
p313
S'Fri Oct 17 11:24:08 2014'
p314
sS'response'
p315
g57
(S's()\x00\x00<div><table><tr><td style="font-weight:bold;vertical-align:top;">body</td><td style="vertical-align:top;">:</td><td><div>&lt;cStringIO.StringO object at 0x0000000004AC2C00&gt;</div></td></tr><tr><td style="font-weight:bold;vertical-align:top;">cookies</td><td style="vertical-align:top;">:</td><td><div><table><tr><td style="font-weight:bold;vertical-align:top;">session_id_nwoi</td><td style="vertical-align:top;">:</td><td><div>127.0.0.1-0d22a784-fcea-4c77-811c-0dd8108ac35c<table><tr><td style="font-weight:bold;vertical-align:top;">comment</td><td style="vertical-align:top;">:</td><td><div></div></td></tr><tr><td style="font-weight:bold;vertical-align:top;">domain</td><td style="vertical-align:top;">:</td><td><div></div></td></tr><tr><td style="font-weight:bold;vertical-align:top;">expires</td><td style="vertical-align:top;">:</td><td><div></div></td></tr><tr><td style="font-weight:bold;vertical-align:top;">httponly</td><td style="vertical-align:top;">:</td><td><div></div></td></tr><tr><td style="font-weight:bold;vertical-align:top;">max-age</td><td style="vertical-align:top;">:</td><td><div></div></td></tr><tr><td style="font-weight:bold;vertical-align:top;">path</td><td style="vertical-align:top;">:</td><td><div>/</div></td></tr><tr><td style="font-weight:bold;vertical-align:top;">secure</td><td style="vertical-align:top;">:</td><td><div></div></td></tr><tr><td style="font-weight:bold;vertical-align:top;">version</td><td style="vertical-align:top;">:</td><td><div></div></td></tr></table></div></td></tr></table></div></td></tr><tr><td style="font-weight:bold;vertical-align:top;">delimiters</td><td style="vertical-align:top;">:</td><td><div><table><tr><td><div>{{</div></td></tr><tr><td><div>}}</div></td></tr></table></div></td></tr><tr><td style="font-weight:bold;vertical-align:top;">files</td><td style="vertical-align:top;">:</td><td><div><table></table></div></td></tr><tr><td style="font-weight:bold;vertical-align:top;">flash</td><td style="vertical-align:top;">:</td><td><div></div></td></tr><tr><td style="font-weight:bold;vertical-align:top;">form_label_separator</td><td style="vertical-align:top;">:</td><td><div>: </div></td></tr><tr><td style="font-weight:bold;vertical-align:top;">formstyle</td><td style="vertical-align:top;">:</td><td><div>table3cols</div></td></tr><tr><td style="font-weight:bold;vertical-align:top;">generic_patterns</td><td style="vertical-align:top;">:</td><td><div><table><tr><td><div>*</div></td></tr></table></div></td></tr><tr><td style="font-weight:bold;vertical-align:top;">google_analytics_id</td><td style="vertical-align:top;">:</td><td><div>None</div></td></tr><tr><td style="font-weight:bold;vertical-align:top;">headers</td><td style="vertical-align:top;">:</td><td><div><table><tr><td style="font-weight:bold;vertical-align:top;">X-Powered-By</td><td style="vertical-align:top;">:</td><td><div>web2py</div></td></tr></table></div></td></tr><tr><td style="font-weight:bold;vertical-align:top;">logo</td><td style="vertical-align:top;">:</td><td><div><a class="brand" href="http://www.web2py.com/"><b>web<span>2</span>py</b>&trade;&nbsp;</a></div></td></tr><tr><td style="font-weight:bold;vertical-align:top;">menu</td><td style="vertical-align:top;">:</td><td><div><table><tr><td><div><table><tr><td><div>\xe9\xa6\x96\xe9\xa1\xb5</div></td></tr><tr><td><div>False</div></td></tr><tr><td><div>/nwoi/default/index</div></td></tr><tr><td><div><table></table></div></td></tr></table></div></td></tr><tr><td><div><table><tr><td><div>\xe9\xa2\x98\xe7\x9b\xae</div></td></tr><tr><td><div>False</div></td></tr><tr><td><div>/nwoi/default/timus</div></td></tr><tr><td><div><table></table></div></td></tr></table></div></td></tr><tr><td><div><table><tr><td><div>\xe6\x8f\x90\xe4\xba\xa4</div></td></tr><tr><td><div>False</div></td></tr><tr><td><div>/nwoi/default/tijiaos</div></td></tr><tr><td><div><table></table></div></td></tr></table></div></td></tr><tr><td><div><table><tr><td><div>\xe8\xa7\xa3\xe9\xa2\x98\xe6\x8a\xa5\xe5\x91\x8a</div></td></tr><tr><td><div>False</div></td></tr><tr><td><div>/nwoi/default/jietibaogaos</div></td></tr><tr><td><div><table></table></div></td></tr></table></div></td></tr><tr><td><div><table><tr><td><div>\xe4\xbd\x9c\xe4\xb8\x9a</div></td></tr><tr><td><div>False</div></td></tr><tr><td><div>/nwoi/default/zuoyes</div></td></tr><tr><td><div><table></table></div></td></tr></table></div></td></tr><tr><td><div><table><tr><td><div>\xe6\x88\x91\xe7\x9a\x84\xe5\x8a\xa0\xe5\x87\x8f\xe5\x88\x86</div></td></tr><tr><td><div>False</div></td></tr><tr><td><div>/nwoi/default/myjiajianfen</div></td></tr><tr><td><div><table></table></div></td></tr></table></div></td></tr><tr><td><div><table><tr><td><div>\xe7\xae\xa1\xe7\x90\x86</div></td></tr><tr><td><div>False</div></td></tr><tr><td><div></div></td></tr><tr><td><div><table><tr><td><div><table><tr><td><div>\xe9\xa2\x98\xe7\x9b\xae\xe7\xae\xa1\xe7\x90\x86</div></td></tr><tr><td><div>False</div></td></tr><tr><td><div>/nwoi/default/managetimus</div></td></tr><tr><td><div>[]</div></td></tr></table></div></td></tr><tr><td><div><table><tr><td><div>\xe6\x8f\x90\xe4\xba\xa4\xe7\xae\xa1\xe7\x90\x86</div></td></tr><tr><td><div>False</div></td></tr><tr><td><div>/nwoi/default/manmagetijiaos</div></td></tr><tr><td><div>[]</div></td></tr></table></div></td></tr><tr><td><div><table><tr><td><div>\xe8\xa7\xa3\xe9\xa2\x98\xe6\x8a\xa5\xe5\x91\x8a\xe7\xae\xa1\xe7\x90\x86</div></td></tr><tr><td><div>False</div></td></tr><tr><td><div>/nwoi/default/managejietibaogaos</div></td></tr><tr><td><div>[]</div></td></tr></table></div></td></tr><tr><td><div><table><tr><td><div>\xe4\xbd\x9c\xe4\xb8\x9a\xe7\xae\xa1\xe7\x90\x86</div></td></tr><tr><td><div>False</div></td></tr><tr><td><div>/nwoi/default/managezuoyes</div></td></tr><tr><td><div>[]</div></td></tr></table></div></td></tr><tr><td><div><table><tr><td><div>\xe5\x8a\xa0\xe5\x87\x8f\xe5\x88\x86\xe7\xae\xa1\xe7\x90\x86</div></td></tr><tr><td><div>False</div></td></tr><tr><td><div>/nwoi/default/jiajianfen</div></td></tr><tr><td><div>[]</div></td></tr></table></div></td></tr></table></div></td></tr></table></div></td></tr><tr><td><div><table><tr><td><div>\xe5\xae\xa1\xe6\xa0\xb8</div></td></tr><tr><td><div>False</div></td></tr><tr><td><div></div></td></tr><tr><td><div><table><tr><td><div><table><tr><td><div>\xe9\xa2\x98\xe7\x9b\xae\xe5\xae\xa1\xe6\xa0\xb8</div></td></tr><tr><td><div>False</div></td></tr><tr><td><div>/nwoi/default/tongguotimu</div></td></tr><tr><td><div>[]</div></td></tr></table></div></td></tr><tr><td><div><table><tr><td><div>\xe6\x8f\x90\xe4\xba\xa4\xe5\xae\xa1\xe6\xa0\xb8</div></td></tr><tr><td><div>False</div></td></tr><tr><td><div>/nwoi/default/tongguotijiao</div></td></tr><tr><td><div>[]</div></td></tr></table></div></td></tr><tr><td><div><table><tr><td><div>\xe8\xa7\xa3\xe9\xa2\x98\xe6\x8a\xa5\xe5\x91\x8a\xe5\xae\xa1\xe6\xa0\xb8</div></td></tr><tr><td><div>False</div></td></tr><tr><td><div>/nwoi/default/tongguojietibaogao</div></td></tr><tr><td><div>[]</div></td></tr></table></div></td></tr></table></div></td></tr></table></div></td></tr></table></div></td></tr><tr><td style="font-weight:bold;vertical-align:top;">meta</td><td style="vertical-align:top;">:</td><td><div><table><tr><td style="font-weight:bold;vertical-align:top;">author</td><td style="vertical-align:top;">:</td><td><div>Your Name &lt;you@example.com&gt;</div></td></tr><tr><td style="font-weight:bold;vertical-align:top;">generator</td><td style="vertical-align:top;">:</td><td><div>Web2py Web Framework</div></td></tr><tr><td style="font-weight:bold;vertical-align:top;">keywords</td><td style="vertical-align:top;">:</td><td><div>web2py, python, framework</div></td></tr></table></div></td></tr><tr><td style="font-weight:bold;vertical-align:top;">models_to_run</td><td style="vertical-align:top;">:</td><td><div><table><tr><td><div>^\\w+\\.py$</div></td></tr><tr><td><div>^default/\\w+\\.py$</div></td></tr><tr><td><div>^default/viewtimu/\\w+\\.py$</div></td></tr></table></div></td></tr><tr><td style="font-weight:bold;vertical-align:top;">postprocessing</td><td style="vertical-align:top;">:</td><td><div><table></table></div></td></tr><tr><td style="font-weight:bold;vertical-align:top;">session_client</td><td style="vertical-align:top;">:</td><td><div>127.0.0.1</div></td></tr><tr><td style="font-weight:bold;vertical-align:top;">session_cookie_compression_level</td><td style="vertical-align:top;">:</td><td><div>None</div></td></tr><tr><td style="font-weight:bold;vertical-align:top;">session_cookie_expires</td><td style="vertical-align:top;">:</td><td><div>None</div></td></tr><tr><td style="font-weight:bold;vertical-align:top;">session_cookie_key</td><td style="vertical-align:top;">:</td><td><div>None</div></td></tr><tr><td style="font-weight:bold;vertical-align:top;">session_data_name</td><td style="vertical-align:top;">:</td><td><div>session_data_nwoi</div></td></tr><tr><td style="font-weight:bold;vertical-align:top;">session_file</td><td style="vertical-align:top;">:</td><td><div>&lt;open file &#x27;e:\\\\documents\\\\nwoi\\\\web2py\\\\applications\\\\nwoi\\\\sessions\\\\08f\\\\0f4\\\\127.0.0.1-0d22a784-fcea-4c77-811c-0dd8108ac35c&#x27;, mode &#x27;rb+&#x27; at 0x0000000008A0A8A0&gt;</div></td></tr><tr><td style="font-weight:bold;vertical-align:top;">session_filename</td><td style="vertical-align:top;">:</td><td><div>e:\\documents\\nwoi\\web2py\\applications\\nwoi\\sessions\\127.0.0.1-0d22a784-fcea-4c77-811c-0dd8108ac35c</div></td></tr><tr><td style="font-weight:bold;vertical-align:top;">session_hash</td><td style="vertical-align:top;">:</td><td><div>097abc37ce14725d29809e1685c4c2f9</div></td></tr><tr><td style="font-weight:bold;vertical-align:top;">session_id</td><td style="vertical-align:top;">:</td><td><div>127.0.0.1-0d22a784-fcea-4c77-811c-0dd8108ac35c</div></td></tr><tr><td style="font-weight:bold;vertical-align:top;">session_id_name</td><td style="vertical-align:top;">:</td><td><div>session_id_nwoi</div></td></tr><tr><td style="font-weight:bold;vertical-align:top;">session_locked</td><td style="vertical-align:top;">:</td><td><div>True</div></td></tr><tr><td style="font-weight:bold;vertical-align:top;">session_masterapp</td><td style="vertical-align:top;">:</td><td><div>nwoi</div></td></tr><tr><td style="font-weight:bold;vertical-align:top;">session_new</td><td style="vertical-align:top;">:</td><td><div>False</div></td></tr><tr><td style="font-weight:bold;vertical-align:top;">session_storage_type</td><td style="vertical-align:top;">:</td><td><div>file</div></td></tr><tr><td style="font-weight:bold;vertical-align:top;">status</td><td style="vertical-align:top;">:</td><td><div>200</div></td></tr><tr><td style="font-weight:bold;vertical-align:top;">subtitle</td><td style="vertical-align:top;">:</td><td><div></div></td></tr><tr><td style="font-weight:bold;vertical-align:top;">title</td><td style="vertical-align:top;">:</td><td><div>\xe5\xae\x81\xe5\xa4\x96oi\xe4\xbf\xb1\xe4\xb9\x90\xe9\x83\xa8</div></td></tr><tr><td style="font-weight:bold;vertical-align:top;">view</td><td style="vertical-align:top;">:</td><td><div>default/viewtimu.html</div></td></tr></table></div>'
tRp316
sS'locals'
p317
(dp318
S'val'
p319
S"'2014-10-17 11:00:30'"
p320
sssS'traceback'
p321
S'Traceback (most recent call last):\n  File "E:\\documents\\nwoi\\web2py\\gluon\\restricted.py", line 224, in restricted\n    exec ccode in environment\n  File "e:\\documents\\nwoi\\web2py\\applications\\nwoi\\controllers/default.py", line 392, in <module>\n  File "E:\\documents\\nwoi\\web2py\\gluon\\globals.py", line 392, in <lambda>\n    self._caller = lambda f: f()\n  File "E:\\documents\\nwoi\\web2py\\gluon\\tools.py", line 3439, in f\n    return action(*a, **b)\n  File "e:\\documents\\nwoi\\web2py\\applications\\nwoi\\controllers/default.py", line 129, in viewtimu\n    pingluns=db(db.pinglun.timu==timuid).select()\n  File "E:\\documents\\nwoi\\web2py\\gluon\\dal.py", line 10749, in select\n    return adapter.select(self.query, fields, attributes)\n  File "E:\\documents\\nwoi\\web2py\\gluon\\dal.py", line 2472, in select\n    return super(SQLiteAdapter, self).select(query, fields, attributes)\n  File "E:\\documents\\nwoi\\web2py\\gluon\\dal.py", line 1881, in select\n    return self._select_aux(sql, fields, attributes)\n  File "E:\\documents\\nwoi\\web2py\\gluon\\dal.py", line 1847, in _select_aux\n    rows = self._fetchall()\n  File "E:\\documents\\nwoi\\web2py\\gluon\\dal.py", line 1840, in _fetchall\n    return self.cursor.fetchall()\n  File "D:\\program files\\WinPython-64bit-2.7.6.4\\python-2.7.6.amd64\\lib\\sqlite3\\dbapi2.py", line 63, in convert_date\n    return datetime.date(*map(int, val.split("-")))\nValueError: invalid literal for int() with base 10: \'17 11:00:30\'\n'
p322
s.