(dp1
S'output'
p2
S"<type 'exceptions.AttributeError'> 'Table' object has no attribute 'oj'"
p3
sS'layer'
p4
S'e:\\documents\\nwoi\\web2py\\applications\\nwoi\\controllers/default.py'
p5
sS'code'
p6
S'# -*- coding: utf-8 -*-\n# this file is released under public domain and you can use without limitations\n\n# ########################################################################\n## This is a sample controller\n## - index is the default action of any application\n## - user is required for authentication and authorization\n## - download is for downloading files uploaded in the db (does streaming)\n## - api is an example of Hypermedia API support and access control\n#########################################################################\nfrom gluon.tools import Crud\n\ncrud = Crud(db)\ncrud.settings.download_url = URL(\'download\')\ncrud.settings.update_deletable = True\ncrud.settings.keepvalues = True\n\n\ndef congfutimu(form):\n    if db.timu((db.timu.oj == form.vars.oj) & (db.timu.bianhao == form.vars.bianhao)):\n        form.errors = True\n        response.flash = \'\xe9\xa2\x98\xe7\x9b\xae\xe5\xb7\xb2\xe5\xad\x98\xe5\x9c\xa8\'\n\n#            redirect(URL(\'timus\'))\ncrud.settings.create_onvalidation.timu.append(congfutimu)\n\n\ndef congfutijiao(form):\n    if db.tijiao((db.tijiao.oj == form.vars.oj) & (db.tijiao.bianhao == form.vars.bianhao) & (\n                db.tijiao.zuozhe == form.vars.zuozhe)):\n        form.errors = True\n        response.flash = \'\xe5\xb7\xb2\xe6\x8f\x90\xe4\xba\xa4\'\n\n#            redirect(URL(\'timus\'))\ncrud.settings.create_onvalidation.tijiao.append(congfutijiao)\n\n\ndef index():\n    """\n    example action using the internationalization operator T and flash\n    rendered by views/default/index.html or views/generic.html\n\n    if you need a simple wiki simply replace the two lines below with:\n    return auth.wiki()\n    """\n    response.flash = T("Welcome to web2py!")\n    return dict(message=T(\'Hello World\'))\n\n\ndef createtimu():\n    db.timu.zuozhe.default = auth.user.id\n    return dict(form=crud.create(db.timu,next=URL(\'timus\'),message=\'add sucessed\'))\n\n\ndef edittimu():\n    return dict(form=crud.update(db.timu, request.args[0]))\n\n\n#-unfinished[[[[[[[[[[[[[[[[[[[[[[[[[[[[[[[[[[[[[[[[[[[[[[[[[[[\ndef tijiao():\n    timu = request.args[0]\n    db.tijiao.timu.default=timu\n    form = crud.create(db.tijiao,netxt=URL(\'timus\'),message=\'tijiaoed\')\n    return locals()\n\n\n#]]]]]]]]]]]]]]]]]]]]]]]]]]]]]]]]]]]]]]]]]]]]]]]]]]]]]]]\n\ndef timus():\n    add = A(\'\xe6\x96\xb0\xe5\xbb\xba\', _href=URL(\'createtimu\'))\n    grid = SQLFORM.grid(\n        db.timu,\n        fields=[db.timu.biaoti, db.timu.zuozhe, db.timu.shijian, db.timu.oj, db.timu.bianhao, db.timu.jifen,\n                db.timu.tongguo],\n        orderby=~db.timu.id,\n        create=False,\n        deletable=False,\n        editable=False,\n        csv=False,\n        links_in_grid=True,\n        links=[dict(header=\'tijiao\', body=lambda row: A(\'tijiao\', _href=URL(\'tijiao\', args=[row.id])))]\n    )\n    return locals()\n\n\ndef managetimus():\n    grid = SQLFORM.smartgrid(\n        db.timu,\n\n        editable=True,\n        details=True,\n        selectable=None,\n        create=True\n    )\n    return dict(form=grid)\n\n\n\ndef user():\n    """\n    exposes:\n    http://..../[app]/default/user/login\n    http://..../[app]/default/user/logout\n    http://..../[app]/default/user/register\n    http://..../[app]/default/user/profile\n    http://..../[app]/default/user/retrieve_password\n    http://..../[app]/default/user/change_password\n    http://..../[app]/default/user/manage_users (requires membership in\n    use @auth.requires_login()\n        @auth.requires_membership(\'group name\')\n        @auth.requires_permission(\'read\',\'table name\',record_id)\n    to decorate functions that need access control\n    """\n    return dict(form=auth())\n\n\n@cache.action()\ndef download():\n    """\n    allows downloading of uploaded files\n    http://..../[app]/default/download/[filename]\n    """\n    return response.download(request, db)\n\n\ndef call():\n    """\n    exposes services. for example:\n    http://..../[app]/default/call/jsonrpc\n    decorate with @services.jsonrpc the functions to expose\n    supports xml, json, xmlrpc, jsonrpc, amfrpc, rss, csv\n    """\n    return service()\n\n\n@auth.requires_login()\ndef api():\n    """\n    this is example of API with access control\n    WEB2PY provides Hypermedia API (Collection+JSON) Experimental\n    """\n    from gluon.contrib.hypermedia import Collection\n\n    rules = {\n        \'<tablename>\': {\'GET\': {}, \'POST\': {}, \'PUT\': {}, \'DELETE\': {}},\n    }\n    return Collection(db).process(request, response, rules)\n\nresponse._vars=response._caller(tijiao)\n'
p7
sS'snapshot'
p8
(dp9
S'exception'
p10
(dp11
S'__hash__'
p12
S"<method-wrapper '__hash__' of exceptions.AttributeError object>"
p13
sS'__setattr__'
p14
S"<method-wrapper '__setattr__' of exceptions.AttributeError object>"
p15
sS'__reduce_ex__'
p16
S'<built-in method __reduce_ex__ of exceptions.AttributeError object>'
p17
sS'__getslice__'
p18
S"<method-wrapper '__getslice__' of exceptions.AttributeError object>"
p19
sS'__getitem__'
p20
S"<method-wrapper '__getitem__' of exceptions.AttributeError object>"
p21
sS'__setstate__'
p22
S'<built-in method __setstate__ of exceptions.AttributeError object>'
p23
sS'__reduce__'
p24
S'<built-in method __reduce__ of exceptions.AttributeError object>'
p25
sS'__str__'
p26
S"<method-wrapper '__str__' of exceptions.AttributeError object>"
p27
sS'__format__'
p28
S'<built-in method __format__ of exceptions.AttributeError object>'
p29
sS'__getattribute__'
p30
S"<method-wrapper '__getattribute__' of exceptions.AttributeError object>"
p31
sS'__class__'
p32
S"<type 'exceptions.AttributeError'>"
p33
sS'__unicode__'
p34
S'<built-in method __unicode__ of exceptions.AttributeError object>'
p35
sS'__delattr__'
p36
S"<method-wrapper '__delattr__' of exceptions.AttributeError object>"
p37
sS'__subclasshook__'
p38
S'<built-in method __subclasshook__ of type object>'
p39
sS'__repr__'
p40
S"<method-wrapper '__repr__' of exceptions.AttributeError object>"
p41
sS'__dict__'
p42
S'{}'
p43
sS'args'
p44
S'("\'Table\' object has no attribute \'oj\'",)'
p45
sS'__sizeof__'
p46
S'<built-in method __sizeof__ of exceptions.AttributeError object>'
p47
sS'__doc__'
p48
S"'Attribute not found.'"
p49
sS'__init__'
p50
S"<method-wrapper '__init__' of exceptions.AttributeError object>"
p51
sS'__new__'
p52
S'<built-in method __new__ of type object>'
p53
ssS'evalue'
p54
S"'Table' object has no attribute 'oj'"
p55
sS'request'
p56
cgluon.html
XML_unpickle
p57
(S'sHc\x00\x00<div><table><tr><td style="font-weight:bold;vertical-align:top;">ajax</td><td style="vertical-align:top;">:</td><td><div>False</div></td></tr><tr><td style="font-weight:bold;vertical-align:top;">application</td><td style="vertical-align:top;">:</td><td><div>nwoi</div></td></tr><tr><td style="font-weight:bold;vertical-align:top;">args</td><td style="vertical-align:top;">:</td><td><div><table><tr><td><div>12</div></td></tr></table></div></td></tr><tr><td style="font-weight:bold;vertical-align:top;">cid</td><td style="vertical-align:top;">:</td><td><div>None</div></td></tr><tr><td style="font-weight:bold;vertical-align:top;">client</td><td style="vertical-align:top;">:</td><td><div>127.0.0.1</div></td></tr><tr><td style="font-weight:bold;vertical-align:top;">controller</td><td style="vertical-align:top;">:</td><td><div>default</div></td></tr><tr><td style="font-weight:bold;vertical-align:top;">cookies</td><td style="vertical-align:top;">:</td><td><div><table><tr><td style="font-weight:bold;vertical-align:top;">session_id_admin</td><td style="vertical-align:top;">:</td><td><div>127.0.0.1-12efe103-775c-4197-8772-183edd550ec2<table><tr><td style="font-weight:bold;vertical-align:top;">comment</td><td style="vertical-align:top;">:</td><td><div></div></td></tr><tr><td style="font-weight:bold;vertical-align:top;">domain</td><td style="vertical-align:top;">:</td><td><div></div></td></tr><tr><td style="font-weight:bold;vertical-align:top;">expires</td><td style="vertical-align:top;">:</td><td><div></div></td></tr><tr><td style="font-weight:bold;vertical-align:top;">httponly</td><td style="vertical-align:top;">:</td><td><div></div></td></tr><tr><td style="font-weight:bold;vertical-align:top;">max-age</td><td style="vertical-align:top;">:</td><td><div></div></td></tr><tr><td style="font-weight:bold;vertical-align:top;">path</td><td style="vertical-align:top;">:</td><td><div></div></td></tr><tr><td style="font-weight:bold;vertical-align:top;">secure</td><td style="vertical-align:top;">:</td><td><div></div></td></tr><tr><td style="font-weight:bold;vertical-align:top;">version</td><td style="vertical-align:top;">:</td><td><div></div></td></tr></table></div></td></tr><tr><td style="font-weight:bold;vertical-align:top;">session_id_nwoi</td><td style="vertical-align:top;">:</td><td><div>127.0.0.1-604d40f4-21b9-42a6-9620-18ac497e2438<table><tr><td style="font-weight:bold;vertical-align:top;">comment</td><td style="vertical-align:top;">:</td><td><div></div></td></tr><tr><td style="font-weight:bold;vertical-align:top;">domain</td><td style="vertical-align:top;">:</td><td><div></div></td></tr><tr><td style="font-weight:bold;vertical-align:top;">expires</td><td style="vertical-align:top;">:</td><td><div></div></td></tr><tr><td style="font-weight:bold;vertical-align:top;">httponly</td><td style="vertical-align:top;">:</td><td><div></div></td></tr><tr><td style="font-weight:bold;vertical-align:top;">max-age</td><td style="vertical-align:top;">:</td><td><div></div></td></tr><tr><td style="font-weight:bold;vertical-align:top;">path</td><td style="vertical-align:top;">:</td><td><div></div></td></tr><tr><td style="font-weight:bold;vertical-align:top;">secure</td><td style="vertical-align:top;">:</td><td><div></div></td></tr><tr><td style="font-weight:bold;vertical-align:top;">version</td><td style="vertical-align:top;">:</td><td><div></div></td></tr></table></div></td></tr><tr><td style="font-weight:bold;vertical-align:top;">session_id_welcome</td><td style="vertical-align:top;">:</td><td><div>127.0.0.1-84020057-d7ef-4626-9829-67b0f3cd2724<table><tr><td style="font-weight:bold;vertical-align:top;">comment</td><td style="vertical-align:top;">:</td><td><div></div></td></tr><tr><td style="font-weight:bold;vertical-align:top;">domain</td><td style="vertical-align:top;">:</td><td><div></div></td></tr><tr><td style="font-weight:bold;vertical-align:top;">expires</td><td style="vertical-align:top;">:</td><td><div></div></td></tr><tr><td style="font-weight:bold;vertical-align:top;">httponly</td><td style="vertical-align:top;">:</td><td><div></div></td></tr><tr><td style="font-weight:bold;vertical-align:top;">max-age</td><td style="vertical-align:top;">:</td><td><div></div></td></tr><tr><td style="font-weight:bold;vertical-align:top;">path</td><td style="vertical-align:top;">:</td><td><div></div></td></tr><tr><td style="font-weight:bold;vertical-align:top;">secure</td><td style="vertical-align:top;">:</td><td><div></div></td></tr><tr><td style="font-weight:bold;vertical-align:top;">version</td><td style="vertical-align:top;">:</td><td><div></div></td></tr></table></div></td></tr></table></div></td></tr><tr><td style="font-weight:bold;vertical-align:top;">env</td><td style="vertical-align:top;">:</td><td><div><table><tr><td style="font-weight:bold;vertical-align:top;">CONTENT_LENGTH</td><td style="vertical-align:top;">:</td><td><div>526815</div></td></tr><tr><td style="font-weight:bold;vertical-align:top;">CONTENT_TYPE</td><td style="vertical-align:top;">:</td><td><div>multipart/form-data; boundary=---------------------------28249239742633</div></td></tr><tr><td style="font-weight:bold;vertical-align:top;">HTTP_ACCEPT</td><td style="vertical-align:top;">:</td><td><div>text/html,application/xhtml+xml,application/xml;q=0.9,*/*;q=0.8</div></td></tr><tr><td style="font-weight:bold;vertical-align:top;">HTTP_ACCEPT_ENCODING</td><td style="vertical-align:top;">:</td><td><div>gzip, deflate</div></td></tr><tr><td style="font-weight:bold;vertical-align:top;">HTTP_ACCEPT_LANGUAGE</td><td style="vertical-align:top;">:</td><td><div>zh-cn,zh;q=0.8,en-us;q=0.5,en;q=0.3</div></td></tr><tr><td style="font-weight:bold;vertical-align:top;">HTTP_CONNECTION</td><td style="vertical-align:top;">:</td><td><div>keep-alive</div></td></tr><tr><td style="font-weight:bold;vertical-align:top;">HTTP_CONTENT_LENGTH</td><td style="vertical-align:top;">:</td><td><div>526815</div></td></tr><tr><td style="font-weight:bold;vertical-align:top;">HTTP_CONTENT_TYPE</td><td style="vertical-align:top;">:</td><td><div>multipart/form-data; boundary=---------------------------28249239742633</div></td></tr><tr><td style="font-weight:bold;vertical-align:top;">HTTP_COOKIE</td><td style="vertical-align:top;">:</td><td><div>session_id_welcome=127.0.0.1-84020057-d7ef-4626-9829-67b0f3cd2724; session_id_admin=127.0.0.1-12efe103-775c-4197-8772-183edd550ec2; session_id_nwoi=127.0.0.1-604d40f4-21b9-42a6-9620-18ac497e2438</div></td></tr><tr><td style="font-weight:bold;vertical-align:top;">HTTP_HOST</td><td style="vertical-align:top;">:</td><td><div>127.0.0.1:8000</div></td></tr><tr><td style="font-weight:bold;vertical-align:top;">HTTP_REFERER</td><td style="vertical-align:top;">:</td><td><div>http://127.0.0.1:8000/nwoi/default/tijiao/12</div></td></tr><tr><td style="font-weight:bold;vertical-align:top;">HTTP_USER_AGENT</td><td style="vertical-align:top;">:</td><td><div>Mozilla/5.0 (Windows NT 6.1; WOW64; rv:32.0) Gecko/20100101 Firefox/32.0</div></td></tr><tr><td style="font-weight:bold;vertical-align:top;">PATH_INFO</td><td style="vertical-align:top;">:</td><td><div>/nwoi/default/tijiao/12</div></td></tr><tr><td style="font-weight:bold;vertical-align:top;">QUERY_STRING</td><td style="vertical-align:top;">:</td><td><div></div></td></tr><tr><td style="font-weight:bold;vertical-align:top;">REMOTE_ADDR</td><td style="vertical-align:top;">:</td><td><div>127.0.0.1</div></td></tr><tr><td style="font-weight:bold;vertical-align:top;">REMOTE_PORT</td><td style="vertical-align:top;">:</td><td><div>52072</div></td></tr><tr><td style="font-weight:bold;vertical-align:top;">REQUEST_METHOD</td><td style="vertical-align:top;">:</td><td><div>POST</div></td></tr><tr><td style="font-weight:bold;vertical-align:top;">SCRIPT_NAME</td><td style="vertical-align:top;">:</td><td><div></div></td></tr><tr><td style="font-weight:bold;vertical-align:top;">SERVER_NAME</td><td style="vertical-align:top;">:</td><td><div>chugle-PC</div></td></tr><tr><td style="font-weight:bold;vertical-align:top;">SERVER_PORT</td><td style="vertical-align:top;">:</td><td><div>8000</div></td></tr><tr><td style="font-weight:bold;vertical-align:top;">SERVER_PROTOCOL</td><td style="vertical-align:top;">:</td><td><div>HTTP/1.1</div></td></tr><tr><td style="font-weight:bold;vertical-align:top;">SERVER_SOFTWARE</td><td style="vertical-align:top;">:</td><td><div>Rocket 1.2.6</div></td></tr><tr><td style="font-weight:bold;vertical-align:top;">app_folders</td><td style="vertical-align:top;">:</td><td><div>set([&#x27;e:\\\\documents\\\\nwoi\\\\web2py\\\\applications\\\\admin\\\\&#x27;, &#x27;e:\\\\documents\\\\nwoi\\\\web2py\\\\applications\\\\welcome\\\\&#x27;, &#x27;e:\\\\documents\\\\nwoi\\\\web2py\\\\applications\\\\nwoi\\\\&#x27;])</div></td></tr><tr><td style="font-weight:bold;vertical-align:top;">applications_parent</td><td style="vertical-align:top;">:</td><td><div>e:\\documents\\nwoi\\web2py</div></td></tr><tr><td style="font-weight:bold;vertical-align:top;">cmd_args</td><td style="vertical-align:top;">:</td><td><div><table></table></div></td></tr><tr><td style="font-weight:bold;vertical-align:top;">cmd_options</td><td style="vertical-align:top;">:</td><td><div>&lt;Values at 0x3cb8888: {&#x27;verbose&#x27;: False, &#x27;ip&#x27;: &#x27;127.0.0.1&#x27;, &#x27;debuglevel&#x27;: 30, &#x27;with_scheduler&#x27;: False, &#x27;ips&#x27;: [&#x27;fe80::79ba:218c:bbc4:9c4b%15&#x27;, &#x27;2001:0:9d38:90d7:1832:229f:4877:3ab9&#x27;, &#x27;192.168.0.101&#x27;, &#x27;fe80::1832:229f:4877:3ab9%14&#x27;], &#x27;shutdown_timeout&#x27;: 5, &#x27;taskbar&#x27;: False, &#x27;with_coverage&#x27;: False, &#x27;scheduler_groups&#x27;: None, &#x27;port&#x27;: 8000, &#x27;maxthreads&#x27;: None, &#x27;softcron&#x27;: False, &#x27;server_name&#x27;: &#x27;chugle-PC&#x27;, &#x27;bpython&#x27;: False, &#x27;nogui&#x27;: False, &#x27;pid_filename&#x27;: &#x27;httpserver.pid&#x27;, &#x27;extcron&#x27;: False, &#x27;runcron&#x27;: False, &#x27;run_system_tests&#x27;: False, &#x27;test&#x27;: None, &#x27;folder&#x27;: &#x27;e:\\\\documents\\\\nwoi\\\\web2py&#x27;, &#x27;config&#x27;: &#x27;&#x27;, &#x27;minthreads&#x27;: None, &#x27;shell&#x27;: None, &#x27;run&#x27;: &#x27;&#x27;, &#x27;log_filename&#x27;: &#x27;httpserver.log&#x27;, &#x27;profiler_dir&#x27;: None, &#x27;args&#x27;: [&#x27;&#x27;], &#x27;socket_timeout&#x27;: 5, &#x27;ssl_ca_certificate&#x27;: None, &#x27;scheduler&#x27;: None, &#x27;interfaces&#x27;: None, &#x27;ssl_private_key&#x27;: &#x27;&#x27;, &#x27;gae&#x27;: None, &#x27;password&#x27;: &#x27;&lt;ask&gt;&#x27;, &#x27;request_queue_size&#x27;: 5, &#x27;ssl_certificate&#x27;: &#x27;&#x27;, &#x27;cronjob&#x27;: False, &#x27;numthreads&#x27;: None, &#x27;quiet&#x27;: False, &#x27;import_models&#x27;: False, &#x27;timeout&#x27;: 10, &#x27;plain&#x27;: False, &#x27;nobanner&#x27;: False}&gt;</div></td></tr><tr><td style="font-weight:bold;vertical-align:top;">content_length</td><td style="vertical-align:top;">:</td><td><div>526815</div></td></tr><tr><td style="font-weight:bold;vertical-align:top;">content_type</td><td style="vertical-align:top;">:</td><td><div>multipart/form-data; boundary=---------------------------28249239742633</div></td></tr><tr><td style="font-weight:bold;vertical-align:top;">db_sessions</td><td style="vertical-align:top;">:</td><td><div>set([])</div></td></tr><tr><td style="font-weight:bold;vertical-align:top;">debugging</td><td style="vertical-align:top;">:</td><td><div>False</div></td></tr><tr><td style="font-weight:bold;vertical-align:top;">gluon_parent</td><td style="vertical-align:top;">:</td><td><div>e:\\documents\\nwoi\\web2py</div></td></tr><tr><td style="font-weight:bold;vertical-align:top;">http_accept</td><td style="vertical-align:top;">:</td><td><div>text/html,application/xhtml+xml,application/xml;q=0.9,*/*;q=0.8</div></td></tr><tr><td style="font-weight:bold;vertical-align:top;">http_accept_encoding</td><td style="vertical-align:top;">:</td><td><div>gzip, deflate</div></td></tr><tr><td style="font-weight:bold;vertical-align:top;">http_accept_language</td><td style="vertical-align:top;">:</td><td><div>zh-cn,zh;q=0.8,en-us;q=0.5,en;q=0.3</div></td></tr><tr><td style="font-weight:bold;vertical-align:top;">http_connection</td><td style="vertical-align:top;">:</td><td><div>keep-alive</div></td></tr><tr><td style="font-weight:bold;vertical-align:top;">http_content_length</td><td style="vertical-align:top;">:</td><td><div>526815</div></td></tr><tr><td style="font-weight:bold;vertical-align:top;">http_content_type</td><td style="vertical-align:top;">:</td><td><div>multipart/form-data; boundary=---------------------------28249239742633</div></td></tr><tr><td style="font-weight:bold;vertical-align:top;">http_cookie</td><td style="vertical-align:top;">:</td><td><div>session_id_welcome=127.0.0.1-84020057-d7ef-4626-9829-67b0f3cd2724; session_id_admin=127.0.0.1-12efe103-775c-4197-8772-183edd550ec2; session_id_nwoi=127.0.0.1-604d40f4-21b9-42a6-9620-18ac497e2438</div></td></tr><tr><td style="font-weight:bold;vertical-align:top;">http_host</td><td style="vertical-align:top;">:</td><td><div>127.0.0.1:8000</div></td></tr><tr><td style="font-weight:bold;vertical-align:top;">http_referer</td><td style="vertical-align:top;">:</td><td><div>http://127.0.0.1:8000/nwoi/default/tijiao/12</div></td></tr><tr><td style="font-weight:bold;vertical-align:top;">http_user_agent</td><td style="vertical-align:top;">:</td><td><div>Mozilla/5.0 (Windows NT 6.1; WOW64; rv:32.0) Gecko/20100101 Firefox/32.0</div></td></tr><tr><td style="font-weight:bold;vertical-align:top;">is_jython</td><td style="vertical-align:top;">:</td><td><div>False</div></td></tr><tr><td style="font-weight:bold;vertical-align:top;">is_pypy</td><td style="vertical-align:top;">:</td><td><div>False</div></td></tr><tr><td style="font-weight:bold;vertical-align:top;">is_source</td><td style="vertical-align:top;">:</td><td><div>True</div></td></tr><tr><td style="font-weight:bold;vertical-align:top;">local_hosts</td><td style="vertical-align:top;">:</td><td><div><table><tr><td><div>chugle-PC</div></td></tr><tr><td><div>::ffff:127.0.0.1</div></td></tr><tr><td><div>::1</div></td></tr><tr><td><div>2001:0:9d38:90d7:1832:229f:4877:3ab9</div></td></tr><tr><td><div>192.168.0.101</div></td></tr><tr><td><div>fe80::79ba:218c:bbc4:9c4b%15</div></td></tr><tr><td><div>127.0.0.1</div></td></tr><tr><td><div>fe80::1832:229f:4877:3ab9%14</div></td></tr></table></div></td></tr><tr><td style="font-weight:bold;vertical-align:top;">path_info</td><td style="vertical-align:top;">:</td><td><div>/nwoi/default/tijiao/12</div></td></tr><tr><td style="font-weight:bold;vertical-align:top;">query_string</td><td style="vertical-align:top;">:</td><td><div></div></td></tr><tr><td style="font-weight:bold;vertical-align:top;">remote_addr</td><td style="vertical-align:top;">:</td><td><div>127.0.0.1</div></td></tr><tr><td style="font-weight:bold;vertical-align:top;">remote_port</td><td style="vertical-align:top;">:</td><td><div>52072</div></td></tr><tr><td style="font-weight:bold;vertical-align:top;">request_method</td><td style="vertical-align:top;">:</td><td><div>POST</div></td></tr><tr><td style="font-weight:bold;vertical-align:top;">request_uri</td><td style="vertical-align:top;">:</td><td><div>/nwoi/default/tijiao/12</div></td></tr><tr><td style="font-weight:bold;vertical-align:top;">script_name</td><td style="vertical-align:top;">:</td><td><div></div></td></tr><tr><td style="font-weight:bold;vertical-align:top;">server_name</td><td style="vertical-align:top;">:</td><td><div>chugle-PC</div></td></tr><tr><td style="font-weight:bold;vertical-align:top;">server_port</td><td style="vertical-align:top;">:</td><td><div>8000</div></td></tr><tr><td style="font-weight:bold;vertical-align:top;">server_protocol</td><td style="vertical-align:top;">:</td><td><div>HTTP/1.1</div></td></tr><tr><td style="font-weight:bold;vertical-align:top;">server_software</td><td style="vertical-align:top;">:</td><td><div>Rocket 1.2.6</div></td></tr><tr><td style="font-weight:bold;vertical-align:top;">web2py_path</td><td style="vertical-align:top;">:</td><td><div>e:\\documents\\nwoi\\web2py</div></td></tr><tr><td style="font-weight:bold;vertical-align:top;">web2py_version</td><td style="vertical-align:top;">:</td><td><div>2.9.11-stable+timestamp.2014.09.15.23.35.11</div></td></tr><tr><td style="font-weight:bold;vertical-align:top;">wsgi.errors</td><td style="vertical-align:top;">:</td><td><div>&lt;open file &#x27;&lt;stderr&gt;&#x27;, mode &#x27;w&#x27; at 0x0000000001D76150&gt;</div></td></tr><tr><td style="font-weight:bold;vertical-align:top;">wsgi.file_wrapper</td><td style="vertical-align:top;">:</td><td><div>&lt;class wsgiref.util.FileWrapper at 0x00000000026F4528&gt;</div></td></tr><tr><td style="font-weight:bold;vertical-align:top;">wsgi.input</td><td style="vertical-align:top;">:</td><td><div>&lt;socket._fileobject object at 0x0000000009F11C78&gt;</div></td></tr><tr><td style="font-weight:bold;vertical-align:top;">wsgi.multiprocess</td><td style="vertical-align:top;">:</td><td><div>False</div></td></tr><tr><td style="font-weight:bold;vertical-align:top;">wsgi.multithread</td><td style="vertical-align:top;">:</td><td><div>True</div></td></tr><tr><td style="font-weight:bold;vertical-align:top;">wsgi.run_once</td><td style="vertical-align:top;">:</td><td><div>False</div></td></tr><tr><td style="font-weight:bold;vertical-align:top;">wsgi.url_scheme</td><td style="vertical-align:top;">:</td><td><div>http</div></td></tr><tr><td style="font-weight:bold;vertical-align:top;">wsgi.version</td><td style="vertical-align:top;">:</td><td><div><table><tr><td><div>1</div></td></tr><tr><td><div>0</div></td></tr></table></div></td></tr><tr><td style="font-weight:bold;vertical-align:top;">wsgi_errors</td><td style="vertical-align:top;">:</td><td><div>&lt;open file &#x27;&lt;stderr&gt;&#x27;, mode &#x27;w&#x27; at 0x0000000001D76150&gt;</div></td></tr><tr><td style="font-weight:bold;vertical-align:top;">wsgi_file_wrapper</td><td style="vertical-align:top;">:</td><td><div>&lt;class wsgiref.util.FileWrapper at 0x00000000026F4528&gt;</div></td></tr><tr><td style="font-weight:bold;vertical-align:top;">wsgi_input</td><td style="vertical-align:top;">:</td><td><div>&lt;socket._fileobject object at 0x0000000009F11C78&gt;</div></td></tr><tr><td style="font-weight:bold;vertical-align:top;">wsgi_multiprocess</td><td style="vertical-align:top;">:</td><td><div>False</div></td></tr><tr><td style="font-weight:bold;vertical-align:top;">wsgi_multithread</td><td style="vertical-align:top;">:</td><td><div>True</div></td></tr><tr><td style="font-weight:bold;vertical-align:top;">wsgi_run_once</td><td style="vertical-align:top;">:</td><td><div>False</div></td></tr><tr><td style="font-weight:bold;vertical-align:top;">wsgi_url_scheme</td><td style="vertical-align:top;">:</td><td><div>http</div></td></tr><tr><td style="font-weight:bold;vertical-align:top;">wsgi_version</td><td style="vertical-align:top;">:</td><td><div><table><tr><td><div>1</div></td></tr><tr><td><div>0</div></td></tr></table></div></td></tr></table></div></td></tr><tr><td style="font-weight:bold;vertical-align:top;">extension</td><td style="vertical-align:top;">:</td><td><div>html</div></td></tr><tr><td style="font-weight:bold;vertical-align:top;">folder</td><td style="vertical-align:top;">:</td><td><div>e:\\documents\\nwoi\\web2py\\applications\\nwoi\\</div></td></tr><tr><td style="font-weight:bold;vertical-align:top;">function</td><td style="vertical-align:top;">:</td><td><div>tijiao</div></td></tr><tr><td style="font-weight:bold;vertical-align:top;">global_settings</td><td style="vertical-align:top;">:</td><td><div><table><tr><td style="font-weight:bold;vertical-align:top;">app_folders</td><td style="vertical-align:top;">:</td><td><div>set([&#x27;e:\\\\documents\\\\nwoi\\\\web2py\\\\applications\\\\admin\\\\&#x27;, &#x27;e:\\\\documents\\\\nwoi\\\\web2py\\\\applications\\\\welcome\\\\&#x27;, &#x27;e:\\\\documents\\\\nwoi\\\\web2py\\\\applications\\\\nwoi\\\\&#x27;])</div></td></tr><tr><td style="font-weight:bold;vertical-align:top;">applications_parent</td><td style="vertical-align:top;">:</td><td><div>e:\\documents\\nwoi\\web2py</div></td></tr><tr><td style="font-weight:bold;vertical-align:top;">cmd_args</td><td style="vertical-align:top;">:</td><td><div><table></table></div></td></tr><tr><td style="font-weight:bold;vertical-align:top;">cmd_options</td><td style="vertical-align:top;">:</td><td><div>&lt;Values at 0x3cb8888: {&#x27;verbose&#x27;: False, &#x27;ip&#x27;: &#x27;127.0.0.1&#x27;, &#x27;debuglevel&#x27;: 30, &#x27;with_scheduler&#x27;: False, &#x27;ips&#x27;: [&#x27;fe80::79ba:218c:bbc4:9c4b%15&#x27;, &#x27;2001:0:9d38:90d7:1832:229f:4877:3ab9&#x27;, &#x27;192.168.0.101&#x27;, &#x27;fe80::1832:229f:4877:3ab9%14&#x27;], &#x27;shutdown_timeout&#x27;: 5, &#x27;taskbar&#x27;: False, &#x27;with_coverage&#x27;: False, &#x27;scheduler_groups&#x27;: None, &#x27;port&#x27;: 8000, &#x27;maxthreads&#x27;: None, &#x27;softcron&#x27;: False, &#x27;server_name&#x27;: &#x27;chugle-PC&#x27;, &#x27;bpython&#x27;: False, &#x27;nogui&#x27;: False, &#x27;pid_filename&#x27;: &#x27;httpserver.pid&#x27;, &#x27;extcron&#x27;: False, &#x27;runcron&#x27;: False, &#x27;run_system_tests&#x27;: False, &#x27;test&#x27;: None, &#x27;folder&#x27;: &#x27;e:\\\\documents\\\\nwoi\\\\web2py&#x27;, &#x27;config&#x27;: &#x27;&#x27;, &#x27;minthreads&#x27;: None, &#x27;shell&#x27;: None, &#x27;run&#x27;: &#x27;&#x27;, &#x27;log_filename&#x27;: &#x27;httpserver.log&#x27;, &#x27;profiler_dir&#x27;: None, &#x27;args&#x27;: [&#x27;&#x27;], &#x27;socket_timeout&#x27;: 5, &#x27;ssl_ca_certificate&#x27;: None, &#x27;scheduler&#x27;: None, &#x27;interfaces&#x27;: None, &#x27;ssl_private_key&#x27;: &#x27;&#x27;, &#x27;gae&#x27;: None, &#x27;password&#x27;: &#x27;&lt;ask&gt;&#x27;, &#x27;request_queue_size&#x27;: 5, &#x27;ssl_certificate&#x27;: &#x27;&#x27;, &#x27;cronjob&#x27;: False, &#x27;numthreads&#x27;: None, &#x27;quiet&#x27;: False, &#x27;import_models&#x27;: False, &#x27;timeout&#x27;: 10, &#x27;plain&#x27;: False, &#x27;nobanner&#x27;: False}&gt;</div></td></tr><tr><td style="font-weight:bold;vertical-align:top;">db_sessions</td><td style="vertical-align:top;">:</td><td><div>set([])</div></td></tr><tr><td style="font-weight:bold;vertical-align:top;">debugging</td><td style="vertical-align:top;">:</td><td><div>False</div></td></tr><tr><td style="font-weight:bold;vertical-align:top;">gluon_parent</td><td style="vertical-align:top;">:</td><td><div>e:\\documents\\nwoi\\web2py</div></td></tr><tr><td style="font-weight:bold;vertical-align:top;">is_jython</td><td style="vertical-align:top;">:</td><td><div>False</div></td></tr><tr><td style="font-weight:bold;vertical-align:top;">is_pypy</td><td style="vertical-align:top;">:</td><td><div>False</div></td></tr><tr><td style="font-weight:bold;vertical-align:top;">is_source</td><td style="vertical-align:top;">:</td><td><div>True</div></td></tr><tr><td style="font-weight:bold;vertical-align:top;">local_hosts</td><td style="vertical-align:top;">:</td><td><div><table><tr><td><div>chugle-PC</div></td></tr><tr><td><div>::ffff:127.0.0.1</div></td></tr><tr><td><div>::1</div></td></tr><tr><td><div>2001:0:9d38:90d7:1832:229f:4877:3ab9</div></td></tr><tr><td><div>192.168.0.101</div></td></tr><tr><td><div>fe80::79ba:218c:bbc4:9c4b%15</div></td></tr><tr><td><div>127.0.0.1</div></td></tr><tr><td><div>fe80::1832:229f:4877:3ab9%14</div></td></tr></table></div></td></tr><tr><td style="font-weight:bold;vertical-align:top;">web2py_version</td><td style="vertical-align:top;">:</td><td><div>2.9.11-stable+timestamp.2014.09.15.23.35.11</div></td></tr></table></div></td></tr><tr><td style="font-weight:bold;vertical-align:top;">is_https</td><td style="vertical-align:top;">:</td><td><div>False</div></td></tr><tr><td style="font-weight:bold;vertical-align:top;">is_local</td><td style="vertical-align:top;">:</td><td><div>True</div></td></tr><tr><td style="font-weight:bold;vertical-align:top;">is_restful</td><td style="vertical-align:top;">:</td><td><div>False</div></td></tr><tr><td style="font-weight:bold;vertical-align:top;">is_sheduler</td><td style="vertical-align:top;">:</td><td><div>None</div></td></tr><tr><td style="font-weight:bold;vertical-align:top;">is_shell</td><td style="vertical-align:top;">:</td><td><div>None</div></td></tr><tr><td style="font-weight:bold;vertical-align:top;">now</td><td style="vertical-align:top;">:</td><td><div>datetime.datetime(2014, 10, 13, 10, 9, 48, 505000)</div></td></tr><tr><td style="font-weight:bold;vertical-align:top;">raw_args</td><td style="vertical-align:top;">:</td><td><div>12</div></td></tr><tr><td style="font-weight:bold;vertical-align:top;">raw_extension</td><td style="vertical-align:top;">:</td><td><div>None</div></td></tr><tr><td style="font-weight:bold;vertical-align:top;">url</td><td style="vertical-align:top;">:</td><td><div>/nwoi/default/tijiao/12</div></td></tr><tr><td style="font-weight:bold;vertical-align:top;">utcnow</td><td style="vertical-align:top;">:</td><td><div>datetime.datetime(2014, 10, 13, 2, 9, 48, 505000)</div></td></tr><tr><td style="font-weight:bold;vertical-align:top;">uuid</td><td style="vertical-align:top;">:</td><td><div>nwoi/127.0.0.1.2014-10-13.10-09-48.d575079a-b66f-4707-ab77-d413ac251b5f</div></td></tr><tr><td style="font-weight:bold;vertical-align:top;">wsgi</td><td style="vertical-align:top;">:</td><td><div>&lt;gluon.main.LazyWSGI object at 0x0000000003CCD860&gt;</div></td></tr></table></div>'
tRp58
sS'frames'
p59
(lp60
(dp61
S'file'
p62
S'E:\\documents\\nwoi\\web2py\\gluon\\restricted.py'
p63
sS'dump'
p64
(dp65
S'environment'
p66
S"{'A': <class 'gluon.html.A'>, 'ANY_OF': <class 'gluon.validators.ANY_OF'>, 'ASSIGNJS': <function ASSIGNJS>, 'Auth': <class 'gluon.tools.Auth'>, 'B': <class 'gluon.html.B'>, 'BEAUTIFY': <class 'gluon.html.BEAUTIFY'>, 'BODY': <class 'gluon.html.BODY'>, 'BR': <class 'gluon.html.BR'>, 'BUTTON': <class 'gluon.html.BUTTON'>, 'CAT': <class 'gluon.html.CAT'>, ...}"
p67
sS'ccode'
p68
S'<code object <module> at 0000000009736EB0, file ...plications\\nwoi\\controllers/default.py", line 11>'
p69
ssS'lnum'
p70
I224
sS'lines'
p71
(dp72
I224
S'        exec ccode in environment'
p73
sI225
S'    except HTTP:'
p74
sI226
S'        raise'
p75
sI227
S'    except RestrictedError:'
p76
sI228
S'        # do not encapsulate (obfuscate) the original RestrictedError'
p77
sI219
S'    try:'
p78
sI220
S'        if isinstance(code, types.CodeType):'
p79
sI221
S'            ccode = code'
p80
sI222
S'        else:'
p81
sI223
S'            ccode = compile2(code, layer)'
p82
ssS'call'
p83
S"(code='# -*- coding: utf-8 -*-\\n# this file is released ... rules)\\n\\nresponse._vars=response._caller(tijiao)\\n', environment={'A': <class 'gluon.html.A'>, 'ANY_OF': <class 'gluon.validators.ANY_OF'>, 'ASSIGNJS': <function ASSIGNJS>, 'Auth': <class 'gluon.tools.Auth'>, 'B': <class 'gluon.html.B'>, 'BEAUTIFY': <class 'gluon.html.BEAUTIFY'>, 'BODY': <class 'gluon.html.BODY'>, 'BR': <class 'gluon.html.BR'>, 'BUTTON': <class 'gluon.html.BUTTON'>, 'CAT': <class 'gluon.html.CAT'>, ...}, layer=r'e:\\documents\\nwoi\\web2py\\applications\\nwoi\\controllers/default.py')"
p84
sS'func'
p85
S'restricted'
p86
sa(dp87
g62
S'e:\\documents\\nwoi\\web2py\\applications\\nwoi\\controllers\\default.py'
p88
sg64
(dp89
sg70
I149
sg71
(dp90
I138
S'    """'
p91
sI139
S'    this is example of API with access control'
p92
sI140
S'    WEB2PY provides Hypermedia API (Collection+JSON) Experimental'
p93
sI141
S'    """'
p94
sI142
S'    from gluon.contrib.hypermedia import Collection'
p95
sI143
S''
sI144
S'    rules = {'
p96
sI145
S"        '<tablename>': {'GET': {}, 'POST': {}, 'PUT': {}, 'DELETE': {}},"
p97
sI146
S'    }'
p98
sI147
S'    return Collection(db).process(request, response, rules)'
p99
ssg83
S'()'
p100
sg85
S'<module>'
p101
sa(dp102
g62
S'E:\\documents\\nwoi\\web2py\\gluon\\globals.py'
p103
sg64
(dp104
S'self'
p105
S'undefined'
p106
sS'f'
S'<function tijiao>'
p107
ssg70
I392
sg71
(dp108
I387
S"        self.flash = ''            # used by the default view layout"
p109
sI388
S'        self.meta = Storage()      # used by web2py_ajax.html'
p110
sI389
S'        self.menu = []             # used by the default view layout'
p111
sI390
S'        self.files = []            # used by web2py_ajax.html'
p112
sI391
S'        self._vars = None'
p113
sI392
S'        self._caller = lambda f: f()'
p114
sI393
S'        self._view_environment = None'
p115
sI394
S'        self._custom_commit = None'
p116
sI395
S'        self._custom_rollback = None'
p117
sI396
S"        self.generic_patterns = ['*']"
p118
ssg83
S'(f=<function tijiao>)'
p119
sg85
S'<lambda>'
p120
sa(dp121
g62
S'e:\\documents\\nwoi\\web2py\\applications\\nwoi\\controllers\\default.py'
p122
sg64
(dp123
S'global managetimus'
p124
S'<function managetimus>'
p125
ssg70
I63
sg71
(dp126
I64
S'    return locals()'
p127
sI65
S''
sI66
S''
sI67
S'#]]]]]]]]]]]]]]]]]]]]]]]]]]]]]]]]]]]]]]]]]]]]]]]]]]]]]]]'
p128
sI58
S''
sI59
S'#-unfinished[[[[[[[[[[[[[[[[[[[[[[[[[[[[[[[[[[[[[[[[[[[[[[[[[[['
p129
sI60
S'def tijiao():'
p130
sI61
S'    timu = request.args[0]'
p131
sI62
S'    db.tijiao.timu.default=timu'
p132
sI63
S"    form = crud.create(db.tijiao,netxt=URL('timus'),message='tijiaoed')"
p133
ssg83
S'()'
p134
sg85
S'tijiao'
p135
sa(dp136
g62
S'E:\\documents\\nwoi\\web2py\\gluon\\tools.py'
p137
sg64
(dp138
S'attributes'
p139
S"{'netxt': '/nwoi/default/timus'}"
p140
ssg70
I4138
sg71
(dp141
I4133
S'            onaccept=onaccept,'
p142
sI4134
S'            log=log,'
p143
sI4135
S'            message=message,'
p144
sI4136
S'            deletable=False,'
p145
sI4137
S'            formname=formname,'
p146
sI4138
S'            **attributes'
p147
sI4139
S'            )'
p148
sI4140
S''
sI4141
S'    def read(self, table, record):'
p149
sI4142
S'        if not (isinstance(table, self.db.Table) or table in self.db.tables) \\'
p150
ssg83
S"(self=<gluon.tools.Crud object>, table=<Table tijiao (id,timu,zuozhe,shijian,yuyan,jietu,wenjian,daima,tongguo)>, next=None, onvalidation=<Storage {'tijiao': [<function congfutijiao at 0...: [<function congfutimu at 0x000000000947C7B8>]}>, onaccept=<Storage {}>, log='Record %(id)s created', message='tijiaoed', formname=<function <lambda>>, **attributes={'netxt': '/nwoi/default/timus'})"
p151
sg85
S'create'
p152
sa(dp153
g62
S'E:\\documents\\nwoi\\web2py\\gluon\\tools.py'
p154
sg64
(dp155
S'detect_record_change'
p156
g106
sS'self'
p157
S'<gluon.tools.Crud object>'
p158
sS'self.settings'
p159
S"<Storage {'showid': False, 'delete_onaccept': <S...[<function congfutimu at 0x000000000947C7B8>]}>}>"
p160
sS'self.settings.detect_record_change'
p161
S'True'
p162
ssg70
I4083
sg71
(dp163
I4078
S'        if isinstance(onvalidation, StorageList):'
p164
sI4079
S'            onvalidation = onvalidation.get(table._tablename, [])'
p165
sI4080
S'        if form.accepts(request, _session, formname=_formname,'
p166
sI4081
S'                        onvalidation=onvalidation, keepvalues=keepvalues,'
p167
sI4082
S'                        hideerror=self.settings.hideerror,'
p168
sI4083
S'                        detect_record_change=self.settings.detect_record_change):'
p169
sI4084
S'            self.accepted = True'
p170
sI4085
S'            response.flash = message'
p171
sI4086
S'            if log:'
p172
sI4087
S'                self.log_event(log, form.vars)'
p173
ssg83
S"(self=<gluon.tools.Crud object>, table=<Table tijiao (id,timu,zuozhe,shijian,yuyan,jietu,wenjian,daima,tongguo)>, record=None, next=None, onvalidation=[<function congfutijiao>], onaccept=<Storage {}>, ondelete=<Storage {}>, log='Record %(id)s created', message='tijiaoed', deletable=False, formname=<function <lambda>>, **attributes={'hidden': {'_next': None}, 'netxt': '/nwoi/default/timus'})"
p174
sg85
S'update'
p175
sa(dp176
g62
S'E:\\documents\\nwoi\\web2py\\gluon\\sqlhtml.py'
p177
sg64
(dp178
S'kwargs'
p179
g43
ssg70
I1455
sg71
(dp180
I1450
S'            session,'
p181
sI1451
S'            formname,'
p182
sI1452
S'            keepvalues,'
p183
sI1453
S'            onvalidation,'
p184
sI1454
S'            hideerror=hideerror,'
p185
sI1455
S'            **kwargs'
p186
sI1456
S'        )'
p187
sI1457
S''
sI1458
S'        self.deleted = \\'
p188
sI1459
S'            request_vars.get(self.FIELDNAME_REQUEST_DELETE, False)'
p189
ssg83
S"(self=<gluon.sqlhtml.SQLFORM object>, request_vars=<Storage {'shijian': '2014-10-13', 'wenjian': Fi...-93e5-ceea855950c8', '_formname': 'tijiao/None'}>, session=<Storage {'_formkey[tijiao/None]': ['397af486-f5...orage {'version': '32.0', 'name': 'Firefox'}>}>}>, formname='tijiao/None', keepvalues=True, onvalidation=[<function congfutijiao>], dbio=True, hideerror=False, detect_record_change=True, **kwargs={})"
p190
sg85
S'accepts'
p191
sa(dp192
g62
S'E:\\documents\\nwoi\\web2py\\gluon\\html.py'
p193
sg64
(dp194
S'global call_as_list'
p195
S'<function call_as_list>'
p196
sS'self'
p197
S'<gluon.sqlhtml.SQLFORM object>'
p198
sS'onvalidation'
p199
S'[<function congfutijiao>]'
p200
ssg70
I2141
sg71
(dp201
I2144
S'        if not session is None:'
p202
sI2145
S"            if hasattr(self, 'record_hash'):"
p203
sI2136
S'                if changed:'
p204
sI2137
S'                    if onchange and self.record_changed and \\'
p205
sI2138
S'                            self.detect_record_change:'
p206
sI2139
S'                        call_as_list(onchange,self)'
p207
sI2140
S'            elif status:'
p208
sI2141
S'                call_as_list(onvalidation, self)'
p209
sI2142
S'        if self.errors:'
p210
sI2143
S'            status = False'
p211
ssg83
S"(self=<gluon.sqlhtml.SQLFORM object>, request_vars=<Storage {'shijian': '2014-10-13', 'wenjian': Fi...-93e5-ceea855950c8', '_formname': 'tijiao/None'}>, session=<Storage {'_formkey[tijiao/None]': ['397af486-f5...orage {'version': '32.0', 'name': 'Firefox'}>}>}>, formname='tijiao/None', keepvalues=True, onvalidation=[<function congfutijiao>], hideerror=False, **kwargs={})"
p212
sg85
g191
sa(dp213
g62
S'E:\\documents\\nwoi\\web2py\\gluon\\html.py'
p214
sg64
(dp215
S'a'
S'(<gluon.sqlhtml.SQLFORM object>,)'
p216
sS'item'
p217
S'<function congfutijiao>'
p218
sS'b'
g43
ssg70
I146
sg71
(dp219
I141
S''
sI142
S'def call_as_list(f,*a,**b):'
p220
sI143
S'    if not isinstance(f, (list,tuple)):'
p221
sI144
S'        f = [f]'
p222
sI145
S'    for item in f:'
p223
sI146
S'        item(*a,**b)'
p224
sI147
S''
sI148
S"def truncate_string(text, length, dots='...'):"
p225
sI149
S"    text = text.decode('utf-8')"
p226
sI150
S'    if len(text) > length:'
p227
ssg83
S'(f=[<function congfutijiao>], *a=(<gluon.sqlhtml.SQLFORM object>,), **b={})'
p228
sg85
S'call_as_list'
p229
sa(dp230
g62
S'e:\\documents\\nwoi\\web2py\\applications\\nwoi\\controllers\\default.py'
p231
sg64
(dp232
S'auth.wiki'
p233
S'<bound method Auth.wiki of <gluon.tools.Auth object>>'
p234
sS'global auth'
p235
S'<gluon.tools.Auth object>'
p236
ssg70
I29
sg71
(dp237
I32
S"        response.flash = '\xe5\xb7\xb2\xe6\x8f\x90\xe4\xba\xa4'"
p238
sI33
S''
sI24
S"#            redirect(URL('timus'))"
p239
sI25
S'crud.settings.create_onvalidation.timu.append(congfutimu)'
p240
sI26
S''
sI27
S''
sI28
S'def congfutijiao(form):'
p241
sI29
S'    if db.tijiao((db.tijiao.oj == form.vars.oj) & (db.tijiao.bianhao == form.vars.bianhao) & ('
p242
sI30
S'                db.tijiao.zuozhe == form.vars.zuozhe)):'
p243
sI31
S'        form.errors = True'
p244
ssg83
S'(form=<gluon.sqlhtml.SQLFORM object>)'
p245
sg85
S'congfutijiao'
p246
sa(dp247
g62
S'E:\\documents\\nwoi\\web2py\\gluon\\dal.py'
p248
sg64
(dp249
S'builtinstr'
p250
S"<type 'str'>"
p251
sS'self'
p252
S'<Table tijiao (id,timu,zuozhe,shijian,yuyan,jietu,wenjian,daima,tongguo)>'
p253
sS'global ogetattr'
p254
S"<slot wrapper '__getattribute__' of 'object' objects>"
p255
sS'key'
p256
S"'oj'"
p257
ssg70
I9110
sg71
(dp258
I9105
S'            query = self._build_query(key)'
p259
sI9106
S'            return self._db(query).select(limitby=(0, 1), orderby_on_limitby=False).first()'
p260
sI9107
S"        elif str(key).isdigit() or 'google' in DRIVERS and isinstance(key, Key):"
p261
sI9108
S'            return self._db(self._id == key).select(limitby=(0, 1), orderby_on_limitby=False).first()'
p262
sI9109
S'        elif key:'
p263
sI9110
S'            return ogetattr(self, str(key))'
p264
sI9111
S''
sI9112
S'    def __call__(self, key=DEFAULT, **kwargs):'
p265
sI9113
S"        for_update = kwargs.get('_for_update', False)"
p266
sI9114
S"        if '_for_update' in kwargs:"
p267
ssg83
S"(self=<Table tijiao (id,timu,zuozhe,shijian,yuyan,jietu,wenjian,daima,tongguo)>, key='oj')"
p268
sg85
g20
sasS'pyver'
p269
S'Python 2.7.6: D:\\program files\\WinPython-64bit-2.7.6.4\\python-2.7.6.amd64\\python.exe (prefix: D:\\program files\\WinPython-64bit-2.7.6.4\\python-2.7.6.amd64)'
p270
sS'session'
p271
g57
(S's\x9c\x00\x00\x00<div><table><tr><td style="font-weight:bold;vertical-align:top;">flash</td><td style="vertical-align:top;">:</td><td><div>None</div></td></tr></table></div>'
tRp272
sS'etype'
p273
S"<type 'exceptions.AttributeError'>"
p274
sS'date'
p275
S'Mon Oct 13 10:09:48 2014'
p276
sS'response'
p277
g57
(S'sx2\x00\x00<div><table><tr><td style="font-weight:bold;vertical-align:top;">body</td><td style="vertical-align:top;">:</td><td><div>&lt;cStringIO.StringO object at 0x0000000009AFC420&gt;</div></td></tr><tr><td style="font-weight:bold;vertical-align:top;">cookies</td><td style="vertical-align:top;">:</td><td><div><table><tr><td style="font-weight:bold;vertical-align:top;">session_id_nwoi</td><td style="vertical-align:top;">:</td><td><div>127.0.0.1-604d40f4-21b9-42a6-9620-18ac497e2438<table><tr><td style="font-weight:bold;vertical-align:top;">comment</td><td style="vertical-align:top;">:</td><td><div></div></td></tr><tr><td style="font-weight:bold;vertical-align:top;">domain</td><td style="vertical-align:top;">:</td><td><div></div></td></tr><tr><td style="font-weight:bold;vertical-align:top;">expires</td><td style="vertical-align:top;">:</td><td><div></div></td></tr><tr><td style="font-weight:bold;vertical-align:top;">httponly</td><td style="vertical-align:top;">:</td><td><div></div></td></tr><tr><td style="font-weight:bold;vertical-align:top;">max-age</td><td style="vertical-align:top;">:</td><td><div></div></td></tr><tr><td style="font-weight:bold;vertical-align:top;">path</td><td style="vertical-align:top;">:</td><td><div>/</div></td></tr><tr><td style="font-weight:bold;vertical-align:top;">secure</td><td style="vertical-align:top;">:</td><td><div></div></td></tr><tr><td style="font-weight:bold;vertical-align:top;">version</td><td style="vertical-align:top;">:</td><td><div></div></td></tr></table></div></td></tr></table></div></td></tr><tr><td style="font-weight:bold;vertical-align:top;">delimiters</td><td style="vertical-align:top;">:</td><td><div><table><tr><td><div>{{</div></td></tr><tr><td><div>}}</div></td></tr></table></div></td></tr><tr><td style="font-weight:bold;vertical-align:top;">files</td><td style="vertical-align:top;">:</td><td><div><table></table></div></td></tr><tr><td style="font-weight:bold;vertical-align:top;">flash</td><td style="vertical-align:top;">:</td><td><div></div></td></tr><tr><td style="font-weight:bold;vertical-align:top;">form_label_separator</td><td style="vertical-align:top;">:</td><td><div>: </div></td></tr><tr><td style="font-weight:bold;vertical-align:top;">formstyle</td><td style="vertical-align:top;">:</td><td><div>table3cols</div></td></tr><tr><td style="font-weight:bold;vertical-align:top;">generic_patterns</td><td style="vertical-align:top;">:</td><td><div><table><tr><td><div>*</div></td></tr></table></div></td></tr><tr><td style="font-weight:bold;vertical-align:top;">google_analytics_id</td><td style="vertical-align:top;">:</td><td><div>None</div></td></tr><tr><td style="font-weight:bold;vertical-align:top;">headers</td><td style="vertical-align:top;">:</td><td><div><table><tr><td style="font-weight:bold;vertical-align:top;">X-Powered-By</td><td style="vertical-align:top;">:</td><td><div>web2py</div></td></tr></table></div></td></tr><tr><td style="font-weight:bold;vertical-align:top;">logo</td><td style="vertical-align:top;">:</td><td><div><a class="brand" href="http://www.web2py.com/"><b>web<span>2</span>py</b>&trade;&nbsp;</a></div></td></tr><tr><td style="font-weight:bold;vertical-align:top;">menu</td><td style="vertical-align:top;">:</td><td><div><table><tr><td><div><table><tr><td><div>Home</div></td></tr><tr><td><div>False</div></td></tr><tr><td><div>/nwoi/default/index</div></td></tr><tr><td><div><table></table></div></td></tr></table></div></td></tr><tr><td><div><table><tr><td><div><span class="highlighted">web2py</span></div></td></tr><tr><td><div>False</div></td></tr><tr><td><div>http://web2py.com</div></td></tr><tr><td><div><table><tr><td><div><table><tr><td><div>My Sites</div></td></tr><tr><td><div>False</div></td></tr><tr><td><div>/admin/default/site</div></td></tr></table></div></td></tr><tr><td><div><table><tr><td><div>\xe8\xaf\xa5\xe5\xba\x94\xe7\x94\xa8</div></td></tr><tr><td><div>False</div></td></tr><tr><td><div>/admin/default/design/nwoi</div></td></tr><tr><td><div>[(&lt;lazyT &#x27;Controller&#x27;&gt;, False, &#x27;/admin/default/edit/nwoi/controllers/default.py&#x27;), (&lt;lazyT &#x27;View&#x27;&gt;, False, &#x27;/admin/default/edit/nwoi/views/default/tijiao.html&#x27;), (&lt;lazyT &#x27;Layout&#x27;&gt;, False, &#x27;/admin/default/edit/nwoi/views/layout.html&#x27;), (&lt;lazyT &#x27;Stylesheet&#x27;&gt;, False, &#x27;/admin/default/edit/nwoi/static/css/web2py.css&#x27;), (&lt;lazyT &#x27;DB Model&#x27;&gt;, False, &#x27;/admin/default/edit/nwoi/models/db.py&#x27;), (&lt;lazyT &#x27;Menu Model&#x27;&gt;, False, &#x27;/admin/default/edit/nwoi/models/menu.py&#x27;), (&lt;lazyT &#x27;Database&#x27;&gt;, False, &#x27;/nwoi/appadmin/index&#x27;), (&lt;lazyT &#x27;Errors&#x27;&gt;, False, &#x27;/admin/default/errors/nwoi&#x27;), (&lt;lazyT &#x27;About&#x27;&gt;, False, &#x27;/admin/default/about/nwoi&#x27;)]</div></td></tr></table></div></td></tr><tr><td><div><table><tr><td><div>web2py.com</div></td></tr><tr><td><div>False</div></td></tr><tr><td><div>http://www.web2py.com</div></td></tr><tr><td><div>[(&lt;lazyT &#x27;Download&#x27;&gt;, False, &#x27;http://www.web2py.com/examples/default/download&#x27;), (&lt;lazyT &#x27;Support&#x27;&gt;, False, &#x27;http://www.web2py.com/examples/default/support&#x27;), (&lt;lazyT &#x27;Demo&#x27;&gt;, False, &#x27;http://web2py.com/demo_admin&#x27;), (&lt;lazyT &#x27;Quick Examples&#x27;&gt;, False, &#x27;http://web2py.com/examples/default/examples&#x27;), (&lt;lazyT &#x27;FAQ&#x27;&gt;, False, &#x27;http://web2py.com/AlterEgo&#x27;), (&lt;lazyT &#x27;Videos&#x27;&gt;, False, &#x27;http://www.web2py.com/examples/default/videos/&#x27;), (&lt;lazyT &#x27;Free Applications&#x27;&gt;, False, &#x27;http://web2py.com/appliances&#x27;), (&lt;lazyT &#x27;Plugins&#x27;&gt;, False, &#x27;http://web2py.com/plugins&#x27;), (&lt;lazyT &#x27;Layouts&#x27;&gt;, False, &#x27;http://web2py.com/layouts&#x27;), (&lt;lazyT &#x27;Recipes&#x27;&gt;, False, &#x27;http://web2pyslices.com/&#x27;), (&lt;lazyT &#x27;Semantic&#x27;&gt;, False, &#x27;http://web2py.com/semantic&#x27;)]</div></td></tr></table></div></td></tr><tr><td><div><table><tr><td><div>Documentation</div></td></tr><tr><td><div>False</div></td></tr><tr><td><div>http://www.web2py.com/book</div></td></tr><tr><td><div>[(&lt;lazyT &#x27;Preface&#x27;&gt;, False, &#x27;http://www.web2py.com/book/default/chapter/00&#x27;), (&lt;lazyT &#x27;Introduction&#x27;&gt;, False, &#x27;http://www.web2py.com/book/default/chapter/01&#x27;), (&lt;lazyT &#x27;Python&#x27;&gt;, False, &#x27;http://www.web2py.com/book/default/chapter/02&#x27;), (&lt;lazyT &#x27;Overview&#x27;&gt;, False, &#x27;http://www.web2py.com/book/default/chapter/03&#x27;), (&lt;lazyT &#x27;The Core&#x27;&gt;, False, &#x27;http://www.web2py.com/book/default/chapter/04&#x27;), (&lt;lazyT &#x27;The Views&#x27;&gt;, False, &#x27;http://www.web2py.com/book/default/chapter/05&#x27;), (&lt;lazyT &#x27;Database&#x27;&gt;, False, &#x27;http://www.web2py.com/book/default/chapter/06&#x27;), (&lt;lazyT &#x27;Forms and Validators&#x27;&gt;, False, &#x27;http://www.web2py.com/book/default/chapter/07&#x27;), (&lt;lazyT &#x27;Email and SMS&#x27;&gt;, False, &#x27;http://www.web2py.com/book/default/chapter/08&#x27;), (&lt;lazyT &#x27;Access Control&#x27;&gt;, False, &#x27;http://www.web2py.com/book/default/chapter/09&#x27;), (&lt;lazyT &#x27;Services&#x27;&gt;, False, &#x27;http://www.web2py.com/book/default/chapter/10&#x27;), (&lt;lazyT &#x27;Ajax Recipes&#x27;&gt;, False, &#x27;http://www.web2py.com/book/default/chapter/11&#x27;), (&lt;lazyT &#x27;Components and Plugins&#x27;&gt;, False, &#x27;http://www.web2py.com/book/default/chapter/12&#x27;), (&lt;lazyT &#x27;Deployment Recipes&#x27;&gt;, False, &#x27;http://www.web2py.com/book/default/chapter/13&#x27;), (&lt;lazyT &#x27;Other Recipes&#x27;&gt;, False, &#x27;http://www.web2py.com/book/default/chapter/14&#x27;), (&lt;lazyT &#x27;Buy this book&#x27;&gt;, False, &#x27;http://stores.lulu.com/web2py&#x27;)]</div></td></tr></table></div></td></tr><tr><td><div><table><tr><td><div>Community</div></td></tr><tr><td><div>False</div></td></tr><tr><td><div>None</div></td></tr><tr><td><div>[(&lt;lazyT &#x27;Groups&#x27;&gt;, False, &#x27;http://www.web2py.com/examples/default/usergroups&#x27;), (&lt;lazyT &#x27;Twitter&#x27;&gt;, False, &#x27;http://twitter.com/web2py&#x27;), (&lt;lazyT &#x27;Live Chat&#x27;&gt;, False, &#x27;http://webchat.freenode.net/?channels=web2py&#x27;)]</div></td></tr></table></div></td></tr><tr><td><div><table><tr><td><div>Plugins</div></td></tr><tr><td><div>False</div></td></tr><tr><td><div>None</div></td></tr><tr><td><div>[(&#x27;plugin_wiki&#x27;, False, &#x27;http://web2py.com/examples/default/download&#x27;), (&lt;lazyT &#x27;Other Plugins&#x27;&gt;, False, &#x27;http://web2py.com/plugins&#x27;), (&lt;lazyT &#x27;Layout Plugins&#x27;&gt;, False, &#x27;http://web2py.com/layouts&#x27;)]</div></td></tr></table></div></td></tr></table></div></td></tr></table></div></td></tr></table></div></td></tr><tr><td style="font-weight:bold;vertical-align:top;">meta</td><td style="vertical-align:top;">:</td><td><div><table><tr><td style="font-weight:bold;vertical-align:top;">author</td><td style="vertical-align:top;">:</td><td><div>Your Name &lt;you@example.com&gt;</div></td></tr><tr><td style="font-weight:bold;vertical-align:top;">generator</td><td style="vertical-align:top;">:</td><td><div>Web2py Web Framework</div></td></tr><tr><td style="font-weight:bold;vertical-align:top;">keywords</td><td style="vertical-align:top;">:</td><td><div>web2py, python, framework</div></td></tr></table></div></td></tr><tr><td style="font-weight:bold;vertical-align:top;">models_to_run</td><td style="vertical-align:top;">:</td><td><div><table><tr><td><div>^\\w+\\.py$</div></td></tr><tr><td><div>^default/\\w+\\.py$</div></td></tr><tr><td><div>^default/tijiao/\\w+\\.py$</div></td></tr></table></div></td></tr><tr><td style="font-weight:bold;vertical-align:top;">postprocessing</td><td style="vertical-align:top;">:</td><td><div><table></table></div></td></tr><tr><td style="font-weight:bold;vertical-align:top;">session_client</td><td style="vertical-align:top;">:</td><td><div>127.0.0.1</div></td></tr><tr><td style="font-weight:bold;vertical-align:top;">session_cookie_compression_level</td><td style="vertical-align:top;">:</td><td><div>None</div></td></tr><tr><td style="font-weight:bold;vertical-align:top;">session_cookie_expires</td><td style="vertical-align:top;">:</td><td><div>None</div></td></tr><tr><td style="font-weight:bold;vertical-align:top;">session_cookie_key</td><td style="vertical-align:top;">:</td><td><div>None</div></td></tr><tr><td style="font-weight:bold;vertical-align:top;">session_data_name</td><td style="vertical-align:top;">:</td><td><div>session_data_nwoi</div></td></tr><tr><td style="font-weight:bold;vertical-align:top;">session_file</td><td style="vertical-align:top;">:</td><td><div>&lt;open file &#x27;e:\\\\documents\\\\nwoi\\\\web2py\\\\applications\\\\nwoi\\\\sessions\\\\010\\\\1b9\\\\127.0.0.1-604d40f4-21b9-42a6-9620-18ac497e2438&#x27;, mode &#x27;rb+&#x27; at 0x00000000090B0AE0&gt;</div></td></tr><tr><td style="font-weight:bold;vertical-align:top;">session_filename</td><td style="vertical-align:top;">:</td><td><div>e:\\documents\\nwoi\\web2py\\applications\\nwoi\\sessions\\127.0.0.1-604d40f4-21b9-42a6-9620-18ac497e2438</div></td></tr><tr><td style="font-weight:bold;vertical-align:top;">session_hash</td><td style="vertical-align:top;">:</td><td><div>5ecbcad596b2addb194f11368351e717</div></td></tr><tr><td style="font-weight:bold;vertical-align:top;">session_id</td><td style="vertical-align:top;">:</td><td><div>127.0.0.1-604d40f4-21b9-42a6-9620-18ac497e2438</div></td></tr><tr><td style="font-weight:bold;vertical-align:top;">session_id_name</td><td style="vertical-align:top;">:</td><td><div>session_id_nwoi</div></td></tr><tr><td style="font-weight:bold;vertical-align:top;">session_locked</td><td style="vertical-align:top;">:</td><td><div>True</div></td></tr><tr><td style="font-weight:bold;vertical-align:top;">session_masterapp</td><td style="vertical-align:top;">:</td><td><div>nwoi</div></td></tr><tr><td style="font-weight:bold;vertical-align:top;">session_new</td><td style="vertical-align:top;">:</td><td><div>False</div></td></tr><tr><td style="font-weight:bold;vertical-align:top;">session_storage_type</td><td style="vertical-align:top;">:</td><td><div>file</div></td></tr><tr><td style="font-weight:bold;vertical-align:top;">status</td><td style="vertical-align:top;">:</td><td><div>200</div></td></tr><tr><td style="font-weight:bold;vertical-align:top;">subtitle</td><td style="vertical-align:top;">:</td><td><div></div></td></tr><tr><td style="font-weight:bold;vertical-align:top;">title</td><td style="vertical-align:top;">:</td><td><div>Nwoi</div></td></tr><tr><td style="font-weight:bold;vertical-align:top;">view</td><td style="vertical-align:top;">:</td><td><div>default/tijiao.html</div></td></tr></table></div>'
tRp278
sS'locals'
p279
(dp280
S'self'
p281
S'<Table tijiao (id,timu,zuozhe,shijian,yuyan,jietu,wenjian,daima,tongguo)>'
p282
sS'key'
p283
S"'oj'"
p284
sssS'traceback'
p285
S'Traceback (most recent call last):\n  File "E:\\documents\\nwoi\\web2py\\gluon\\restricted.py", line 224, in restricted\n    exec ccode in environment\n  File "e:\\documents\\nwoi\\web2py\\applications\\nwoi\\controllers/default.py", line 149, in <module>\n  File "E:\\documents\\nwoi\\web2py\\gluon\\globals.py", line 392, in <lambda>\n    self._caller = lambda f: f()\n  File "e:\\documents\\nwoi\\web2py\\applications\\nwoi\\controllers/default.py", line 63, in tijiao\n    form = crud.create(db.tijiao,netxt=URL(\'timus\'),message=\'tijiaoed\')\n  File "E:\\documents\\nwoi\\web2py\\gluon\\tools.py", line 4138, in create\n    **attributes\n  File "E:\\documents\\nwoi\\web2py\\gluon\\tools.py", line 4083, in update\n    detect_record_change=self.settings.detect_record_change):\n  File "E:\\documents\\nwoi\\web2py\\gluon\\sqlhtml.py", line 1455, in accepts\n    **kwargs\n  File "E:\\documents\\nwoi\\web2py\\gluon\\html.py", line 2141, in accepts\n    call_as_list(onvalidation, self)\n  File "E:\\documents\\nwoi\\web2py\\gluon\\html.py", line 146, in call_as_list\n    item(*a,**b)\n  File "e:\\documents\\nwoi\\web2py\\applications\\nwoi\\controllers/default.py", line 29, in congfutijiao\n    if db.tijiao((db.tijiao.oj == form.vars.oj) & (db.tijiao.bianhao == form.vars.bianhao) & (\n  File "E:\\documents\\nwoi\\web2py\\gluon\\dal.py", line 9110, in __getitem__\n    return ogetattr(self, str(key))\nAttributeError: \'Table\' object has no attribute \'oj\'\n'
p286
s.